---
triple:          'arm64-apple-darwin'
binary-path:     '/Users/vothanhnhan/Desktop/gift/Leftist-Heap/compare'
relocations:
  - { offsetInCU: 0x2F9E, offset: 0x2F9E, size: 0x8, addend: 0x0, symName: __ZNSt3__16chronomiB8ue170006IxNS_5ratioILl1ELl1000000000EEExS3_EENS_11common_typeIJNS0_8durationIT_T0_EENS5_IT1_T2_EEEE4typeERKS8_RKSB_, symObjAddr: 0x1978, symBinAddr: 0x100005A58, symSize: 0x70 }
  - { offsetInCU: 0x345B, offset: 0x345B, size: 0x8, addend: 0x0, symName: __ZNSt3__16chronomiB8ue170006INS0_12steady_clockENS0_8durationIxNS_5ratioILl1ELl1000000000EEEEES6_EENS_11common_typeIJT0_T1_EE4typeERKNS0_10time_pointIT_S8_EERKNSC_ISD_S9_EE, symObjAddr: 0x9A8, symBinAddr: 0x100004A88, symSize: 0x58 }
  - { offsetInCU: 0x35A7, offset: 0x35A7, size: 0x8, addend: 0x0, symName: __ZNSt3__16chrono13duration_castB8ue170006INS0_8durationIdNS_5ratioILl1ELl1EEEEExNS3_ILl1ELl1000000000EEEEENS_9enable_ifIXsr13__is_durationIT_EE5valueES8_E4typeERKNS2_IT0_T1_EE, symObjAddr: 0x1ACC, symBinAddr: 0x100005BAC, symSize: 0x30 }
  - { offsetInCU: 0x6C8E, offset: 0x6C8E, size: 0x8, addend: 0x0, symName: __ZNSt3__124__put_character_sequenceB8ue170006IcNS_11char_traitsIcEEEERNS_13basic_ostreamIT_T0_EES7_PKS4_m, symObjAddr: 0x6364, symBinAddr: 0x10000A444, symSize: 0x1EC }
  - { offsetInCU: 0x88DB, offset: 0x88DB, size: 0x8, addend: 0x0, symName: __ZNSt3__14swapB8ue170006IP11LeftistHeapEENS_9enable_ifIXaasr21is_move_constructibleIT_EE5valuesr18is_move_assignableIS4_EE5valueEvE4typeERS4_S7_, symObjAddr: 0x1A4, symBinAddr: 0x100004284, symSize: 0x3C }
  - { offsetInCU: 0x892C, offset: 0x892C, size: 0x8, addend: 0x0, symName: __ZNSt3__1lsB8ue170006INS_11char_traitsIcEEEERNS_13basic_ostreamIcT_EES6_PKc, symObjAddr: 0x3F8, symBinAddr: 0x1000044D8, symSize: 0x48 }
  - { offsetInCU: 0x898E, offset: 0x898E, size: 0x8, addend: 0x0, symName: __ZNSt3__14endlB8ue170006IcNS_11char_traitsIcEEEERNS_13basic_ostreamIT_T0_EES7_, symObjAddr: 0xC68, symBinAddr: 0x100004D48, symSize: 0x58 }
  - { offsetInCU: 0x89CE, offset: 0x89CE, size: 0x8, addend: 0x0, symName: __ZNSt3__14swapB8ue170006IP12SkewHeapNodeEENS_9enable_ifIXaasr21is_move_constructibleIT_EE5valuesr18is_move_assignableIS4_EE5valueEvE4typeERS4_S7_, symObjAddr: 0x1D5C, symBinAddr: 0x100005E3C, symSize: 0x3C }
  - { offsetInCU: 0x8A1F, offset: 0x8A1F, size: 0x8, addend: 0x0, symName: __ZNSt3__112__to_addressB8ue170006IiEEPT_S2_, symObjAddr: 0x2184, symBinAddr: 0x100006264, symSize: 0x14 }
  - { offsetInCU: 0x8A54, offset: 0x8A54, size: 0x8, addend: 0x0, symName: __ZNSt3__13maxB8ue170006ImEERKT_S3_S3_, symObjAddr: 0x2578, symBinAddr: 0x100006658, symSize: 0x2C }
  - { offsetInCU: 0x8A97, offset: 0x8A97, size: 0x8, addend: 0x0, symName: __ZNSt3__13minB8ue170006ImEERKT_S3_S3_, symObjAddr: 0x25A4, symBinAddr: 0x100006684, symSize: 0x2C }
  - { offsetInCU: 0x8CC4, offset: 0x8CC4, size: 0x8, addend: 0x0, symName: __ZNSt3__13minB8ue170006ImNS_6__lessIvvEEEERKT_S5_S5_T0_, symObjAddr: 0x263C, symBinAddr: 0x10000671C, symSize: 0x54 }
  - { offsetInCU: 0x8D63, offset: 0x8D63, size: 0x8, addend: 0x0, symName: __ZNSt3__120__throw_length_errorB8ue170006EPKc, symObjAddr: 0x2718, symBinAddr: 0x1000067F8, symSize: 0x64 }
  - { offsetInCU: 0x8D8D, offset: 0x8D8D, size: 0x8, addend: 0x0, symName: __ZNSt3__13maxB8ue170006ImNS_6__lessIvvEEEERKT_S5_S5_T0_, symObjAddr: 0x285C, symBinAddr: 0x10000693C, symSize: 0x54 }
  - { offsetInCU: 0x8DE7, offset: 0x8DE7, size: 0x8, addend: 0x0, symName: __ZNSt3__119__allocate_at_leastB8ue170006INS_9allocatorIiEEEENS_19__allocation_resultINS_16allocator_traitsIT_E7pointerEEERS5_m, symObjAddr: 0x29C0, symBinAddr: 0x100006AA0, symSize: 0x40 }
  - { offsetInCU: 0x8E2A, offset: 0x8E2A, size: 0x8, addend: 0x0, symName: __ZNSt3__117__libcpp_allocateB8ue170006Emm, symObjAddr: 0x2B60, symBinAddr: 0x100006C40, symSize: 0x60 }
  - { offsetInCU: 0x8E84, offset: 0x8E84, size: 0x8, addend: 0x0, symName: __ZNSt3__124__is_overaligned_for_newB8ue170006Em, symObjAddr: 0x2BC0, symBinAddr: 0x100006CA0, symSize: 0x20 }
  - { offsetInCU: 0x8EB2, offset: 0x8EB2, size: 0x8, addend: 0x0, symName: __ZNSt3__121__libcpp_operator_newB8ue170006IJmSt11align_val_tEEEPvDpT_, symObjAddr: 0x2BE0, symBinAddr: 0x100006CC0, symSize: 0x2C }
  - { offsetInCU: 0x8EFF, offset: 0x8EFF, size: 0x8, addend: 0x0, symName: __ZNSt3__121__libcpp_operator_newB8ue170006IJmEEEPvDpT_, symObjAddr: 0x2C0C, symBinAddr: 0x100006CEC, symSize: 0x24 }
  - { offsetInCU: 0x8F38, offset: 0x8F38, size: 0x8, addend: 0x0, symName: __ZNSt3__142__uninitialized_allocator_move_if_noexceptB8ue170006INS_9allocatorIiEENS_16reverse_iteratorIPiEES5_ivEET1_RT_T0_S9_S6_, symObjAddr: 0x2D4C, symBinAddr: 0x100006E2C, symSize: 0x78 }
  - { offsetInCU: 0x8FB5, offset: 0x8FB5, size: 0x8, addend: 0x0, symName: __ZNSt3__14swapB8ue170006IPiEENS_9enable_ifIXaasr21is_move_constructibleIT_EE5valuesr18is_move_assignableIS3_EE5valueEvE4typeERS3_S6_, symObjAddr: 0x2E10, symBinAddr: 0x100006EF0, symSize: 0x3C }
  - { offsetInCU: 0x9006, offset: 0x9006, size: 0x8, addend: 0x0, symName: __ZNSt3__14moveB8ue170006INS_16reverse_iteratorIPiEES3_EET0_T_S5_S4_, symObjAddr: 0x2F40, symBinAddr: 0x100007020, symSize: 0x78 }
  - { offsetInCU: 0x9060, offset: 0x9060, size: 0x8, addend: 0x0, symName: __ZNSt3__16__moveB8ue170006INS_17_ClassicAlgPolicyENS_16reverse_iteratorIPiEES4_S4_EENS_4pairIT0_T2_EES6_T1_S7_, symObjAddr: 0x2FB8, symBinAddr: 0x100007098, symSize: 0x64 }
  - { offsetInCU: 0x90CC, offset: 0x90CC, size: 0x8, addend: 0x0, symName: __ZNSt3__123__dispatch_copy_or_moveB8ue170006INS_17_ClassicAlgPolicyENS_11__move_loopIS1_EENS_14__move_trivialENS_16reverse_iteratorIPiEES7_S7_EENS_4pairIT2_T4_EES9_T3_SA_, symObjAddr: 0x301C, symBinAddr: 0x1000070FC, symSize: 0x64 }
  - { offsetInCU: 0x914A, offset: 0x914A, size: 0x8, addend: 0x0, symName: __ZNSt3__121__unwrap_and_dispatchB8ue170006INS_10__overloadINS_11__move_loopINS_17_ClassicAlgPolicyEEENS_14__move_trivialEEENS_16reverse_iteratorIPiEES9_S9_Li0EEENS_4pairIT0_T2_EESB_T1_SC_, symObjAddr: 0x3080, symBinAddr: 0x100007160, symSize: 0x12C }
  - { offsetInCU: 0x91DA, offset: 0x91DA, size: 0x8, addend: 0x0, symName: __ZNSt3__114__unwrap_rangeB8ue170006INS_16reverse_iteratorIPiEES3_EENS_4pairIT0_S5_EET_S7_, symObjAddr: 0x31AC, symBinAddr: 0x10000728C, symSize: 0x84 }
  - { offsetInCU: 0x9394, offset: 0x9394, size: 0x8, addend: 0x0, symName: __ZNSt3__113__unwrap_iterB8ue170006INS_16reverse_iteratorIPiEENS_18__unwrap_iter_implIS3_Lb0EEELi0EEEDTclsrT0_8__unwrapclsr3stdE7declvalIT_EEEES7_, symObjAddr: 0x32D0, symBinAddr: 0x1000073B0, symSize: 0x44 }
  - { offsetInCU: 0x93D8, offset: 0x93D8, size: 0x8, addend: 0x0, symName: __ZNSt3__19make_pairB8ue170006INS_16reverse_iteratorIPiEES3_EENS_4pairINS_18__unwrap_ref_decayIT_E4typeENS5_IT0_E4typeEEEOS6_OS9_, symObjAddr: 0x3314, symBinAddr: 0x1000073F4, symSize: 0x38 }
  - { offsetInCU: 0x9427, offset: 0x9427, size: 0x8, addend: 0x0, symName: __ZNSt3__114__rewrap_rangeB8ue170006INS_16reverse_iteratorIPiEES3_EET_S4_T0_, symObjAddr: 0x334C, symBinAddr: 0x10000742C, symSize: 0x5C }
  - { offsetInCU: 0x9473, offset: 0x9473, size: 0x8, addend: 0x0, symName: __ZNSt3__113__rewrap_iterB8ue170006INS_16reverse_iteratorIPiEES3_NS_18__unwrap_iter_implIS3_Lb0EEEEET_S6_T0_, symObjAddr: 0x33A8, symBinAddr: 0x100007488, symSize: 0x74 }
  - { offsetInCU: 0x94C8, offset: 0x94C8, size: 0x8, addend: 0x0, symName: __ZNSt3__1neB8ue170006IPiS1_EEbRKNS_16reverse_iteratorIT_EERKNS2_IT0_EE, symObjAddr: 0x341C, symBinAddr: 0x1000074FC, symSize: 0x48 }
  - { offsetInCU: 0x95F9, offset: 0x95F9, size: 0x8, addend: 0x0, symName: __ZNSt3__119__libcpp_deallocateB8ue170006EPvmm, symObjAddr: 0x3814, symBinAddr: 0x1000078F4, symSize: 0x60 }
  - { offsetInCU: 0x965E, offset: 0x965E, size: 0x8, addend: 0x0, symName: __ZNSt3__127__do_deallocate_handle_sizeB8ue170006IJSt11align_val_tEEEvPvmDpT_, symObjAddr: 0x3874, symBinAddr: 0x100007954, symSize: 0x30 }
  - { offsetInCU: 0x96B1, offset: 0x96B1, size: 0x8, addend: 0x0, symName: __ZNSt3__127__do_deallocate_handle_sizeB8ue170006IJEEEvPvmDpT_, symObjAddr: 0x38A4, symBinAddr: 0x100007984, symSize: 0x28 }
  - { offsetInCU: 0x96EF, offset: 0x96EF, size: 0x8, addend: 0x0, symName: __ZNSt3__124__libcpp_operator_deleteB8ue170006IJPvSt11align_val_tEEEvDpT_, symObjAddr: 0x38CC, symBinAddr: 0x1000079AC, symSize: 0x2C }
  - { offsetInCU: 0x9738, offset: 0x9738, size: 0x8, addend: 0x0, symName: __ZNSt3__124__libcpp_operator_deleteB8ue170006IJPvEEEvDpT_, symObjAddr: 0x38F8, symBinAddr: 0x1000079D8, symSize: 0x24 }
  - { offsetInCU: 0x976D, offset: 0x976D, size: 0x8, addend: 0x0, symName: __ZNSt3__14swapB8ue170006IiEENS_9enable_ifIXaasr21is_move_constructibleIT_EE5valuesr18is_move_assignableIS2_EE5valueEvE4typeERS2_S5_, symObjAddr: 0x398C, symBinAddr: 0x100007A6C, symSize: 0x3C }
  - { offsetInCU: 0x97BE, offset: 0x97BE, size: 0x8, addend: 0x0, symName: __ZNSt3__1neB8ue170006IPP13FibonacciNodeEEbRKNS_11__wrap_iterIT_EES8_, symObjAddr: 0x3DEC, symBinAddr: 0x100007ECC, symSize: 0x34 }
  - { offsetInCU: 0x9801, offset: 0x9801, size: 0x8, addend: 0x0, symName: __ZNSt3__14swapB8ue170006IP13FibonacciNodeEENS_9enable_ifIXaasr21is_move_constructibleIT_EE5valuesr18is_move_assignableIS4_EE5valueEvE4typeERS4_S7_, symObjAddr: 0x3E5C, symBinAddr: 0x100007F3C, symSize: 0x3C }
  - { offsetInCU: 0x9852, offset: 0x9852, size: 0x8, addend: 0x0, symName: __ZNSt3__122__make_exception_guardB8ue170006INS_6vectorIP13FibonacciNodeNS_9allocatorIS3_EEE16__destroy_vectorEEENS_28__exception_guard_exceptionsIT_EES9_, symObjAddr: 0x40EC, symBinAddr: 0x1000081CC, symSize: 0x40 }
  - { offsetInCU: 0x9887, offset: 0x9887, size: 0x8, addend: 0x0, symName: __ZNSt3__119__allocate_at_leastB8ue170006INS_9allocatorIP13FibonacciNodeEEEENS_19__allocation_resultINS_16allocator_traitsIT_E7pointerEEERS7_m, symObjAddr: 0x44E0, symBinAddr: 0x1000085C0, symSize: 0x40 }
  - { offsetInCU: 0x98CA, offset: 0x98CA, size: 0x8, addend: 0x0, symName: __ZNSt3__112__to_addressB8ue170006IP13FibonacciNodeEEPT_S4_, symObjAddr: 0x4804, symBinAddr: 0x1000088E4, symSize: 0x14 }
  - { offsetInCU: 0x98FF, offset: 0x98FF, size: 0x8, addend: 0x0, symName: __ZNSt3__142__uninitialized_allocator_move_if_noexceptB8ue170006INS_9allocatorIP13FibonacciNodeEENS_16reverse_iteratorIPS3_EES7_S3_vEET1_RT_T0_SB_S8_, symObjAddr: 0x52DC, symBinAddr: 0x1000093BC, symSize: 0x78 }
  - { offsetInCU: 0x997C, offset: 0x997C, size: 0x8, addend: 0x0, symName: __ZNSt3__14swapB8ue170006IPP13FibonacciNodeEENS_9enable_ifIXaasr21is_move_constructibleIT_EE5valuesr18is_move_assignableIS5_EE5valueEvE4typeERS5_S8_, symObjAddr: 0x53A0, symBinAddr: 0x100009480, symSize: 0x3C }
  - { offsetInCU: 0x99CD, offset: 0x99CD, size: 0x8, addend: 0x0, symName: __ZNSt3__14moveB8ue170006INS_16reverse_iteratorIPP13FibonacciNodeEES5_EET0_T_S7_S6_, symObjAddr: 0x53DC, symBinAddr: 0x1000094BC, symSize: 0x78 }
  - { offsetInCU: 0x9A27, offset: 0x9A27, size: 0x8, addend: 0x0, symName: __ZNSt3__16__moveB8ue170006INS_17_ClassicAlgPolicyENS_16reverse_iteratorIPP13FibonacciNodeEES6_S6_EENS_4pairIT0_T2_EES8_T1_S9_, symObjAddr: 0x5454, symBinAddr: 0x100009534, symSize: 0x64 }
  - { offsetInCU: 0x9A93, offset: 0x9A93, size: 0x8, addend: 0x0, symName: __ZNSt3__123__dispatch_copy_or_moveB8ue170006INS_17_ClassicAlgPolicyENS_11__move_loopIS1_EENS_14__move_trivialENS_16reverse_iteratorIPP13FibonacciNodeEES9_S9_EENS_4pairIT2_T4_EESB_T3_SC_, symObjAddr: 0x54B8, symBinAddr: 0x100009598, symSize: 0x64 }
  - { offsetInCU: 0x9B11, offset: 0x9B11, size: 0x8, addend: 0x0, symName: __ZNSt3__121__unwrap_and_dispatchB8ue170006INS_10__overloadINS_11__move_loopINS_17_ClassicAlgPolicyEEENS_14__move_trivialEEENS_16reverse_iteratorIPP13FibonacciNodeEESB_SB_Li0EEENS_4pairIT0_T2_EESD_T1_SE_, symObjAddr: 0x551C, symBinAddr: 0x1000095FC, symSize: 0x12C }
  - { offsetInCU: 0x9BA1, offset: 0x9BA1, size: 0x8, addend: 0x0, symName: __ZNSt3__114__unwrap_rangeB8ue170006INS_16reverse_iteratorIPP13FibonacciNodeEES5_EENS_4pairIT0_S7_EET_S9_, symObjAddr: 0x5648, symBinAddr: 0x100009728, symSize: 0x84 }
  - { offsetInCU: 0x9CC1, offset: 0x9CC1, size: 0x8, addend: 0x0, symName: __ZNSt3__113__unwrap_iterB8ue170006INS_16reverse_iteratorIPP13FibonacciNodeEENS_18__unwrap_iter_implIS5_Lb0EEELi0EEEDTclsrT0_8__unwrapclsr3stdE7declvalIT_EEEES9_, symObjAddr: 0x576C, symBinAddr: 0x10000984C, symSize: 0x44 }
  - { offsetInCU: 0x9D05, offset: 0x9D05, size: 0x8, addend: 0x0, symName: __ZNSt3__19make_pairB8ue170006INS_16reverse_iteratorIPP13FibonacciNodeEES5_EENS_4pairINS_18__unwrap_ref_decayIT_E4typeENS7_IT0_E4typeEEEOS8_OSB_, symObjAddr: 0x57B0, symBinAddr: 0x100009890, symSize: 0x38 }
  - { offsetInCU: 0x9D54, offset: 0x9D54, size: 0x8, addend: 0x0, symName: __ZNSt3__114__rewrap_rangeB8ue170006INS_16reverse_iteratorIPP13FibonacciNodeEES5_EET_S6_T0_, symObjAddr: 0x57E8, symBinAddr: 0x1000098C8, symSize: 0x5C }
  - { offsetInCU: 0x9DA0, offset: 0x9DA0, size: 0x8, addend: 0x0, symName: __ZNSt3__113__rewrap_iterB8ue170006INS_16reverse_iteratorIPP13FibonacciNodeEES5_NS_18__unwrap_iter_implIS5_Lb0EEEEET_S8_T0_, symObjAddr: 0x5844, symBinAddr: 0x100009924, symSize: 0x74 }
  - { offsetInCU: 0x9DF5, offset: 0x9DF5, size: 0x8, addend: 0x0, symName: __ZNSt3__1neB8ue170006IPP13FibonacciNodeS3_EEbRKNS_16reverse_iteratorIT_EERKNS4_IT0_EE, symObjAddr: 0x58B8, symBinAddr: 0x100009998, symSize: 0x48 }
  - { offsetInCU: 0x9EAD, offset: 0x9EAD, size: 0x8, addend: 0x0, symName: __ZNSt3__1eqB8ue170006IPP13FibonacciNodeEEbRKNS_11__wrap_iterIT_EES8_, symObjAddr: 0x5CCC, symBinAddr: 0x100009DAC, symSize: 0x48 }
  - { offsetInCU: 0x9EF0, offset: 0x9EF0, size: 0x8, addend: 0x0, symName: __ZNSt3__116__pad_and_outputB8ue170006IcNS_11char_traitsIcEEEENS_19ostreambuf_iteratorIT_T0_EES6_PKS4_S8_S8_RNS_8ios_baseES4_, symObjAddr: 0x65A0, symBinAddr: 0x10000A680, symSize: 0x240 }
  - { offsetInCU: 0x9FBF, offset: 0x9FBF, size: 0x8, addend: 0x0, symName: __ZNSt3__112__to_addressB8ue170006IcEEPT_S2_, symObjAddr: 0x6B08, symBinAddr: 0x10000ABE8, symSize: 0x14 }
  - { offsetInCU: 0xA027, offset: 0xA027, size: 0x8, addend: 0x0, symName: __ZNSt3__19use_facetB8ue170006INS_5ctypeIcEEEERKT_RKNS_6localeE, symObjAddr: 0x6DC0, symBinAddr: 0x10000AEA0, symSize: 0x2C }
  - { offsetInCU: 0xA4F4, offset: 0xA4F4, size: 0x8, addend: 0x0, symName: __ZNSt3__118__constexpr_strlenB8ue170006EPKc, symObjAddr: 0x6E58, symBinAddr: 0x10000AF38, symSize: 0x24 }
  - { offsetInCU: 0xA520, offset: 0xA520, size: 0x8, addend: 0x0, symName: __ZNSt3__122__make_exception_guardB8ue170006INS_6vectorIiNS_9allocatorIiEEE16__destroy_vectorEEENS_28__exception_guard_exceptionsIT_EES7_, symObjAddr: 0x6F50, symBinAddr: 0x10000B030, symSize: 0x40 }
  - { offsetInCU: 0xA9A3, offset: 0xA9A3, size: 0x8, addend: 0x0, symName: __ZSt28__throw_bad_array_new_lengthB8ue170006v, symObjAddr: 0x2B2C, symBinAddr: 0x100006C0C, symSize: 0x34 }
  - { offsetInCU: 0xACE6, offset: 0xACE6, size: 0x8, addend: 0x0, symName: __ZNKSt3__16chrono15__duration_castINS0_8durationIxNS_5ratioILl1ELl1000000000EEEEENS2_IdNS3_ILl1ELl1EEEEES4_Lb1ELb0EEclB8ue170006ERKS5_, symObjAddr: 0x1AFC, symBinAddr: 0x100005BDC, symSize: 0x50 }
  - { offsetInCU: 0xAF04, offset: 0xAF04, size: 0x8, addend: 0x0, symName: __ZNSt3__16vectorIiNS_9allocatorIiEEE26__swap_out_circular_bufferERNS_14__split_bufferIiRS2_EE, symObjAddr: 0x2380, symBinAddr: 0x100006460, symSize: 0x110 }
  - { offsetInCU: 0xB181, offset: 0xB181, size: 0x8, addend: 0x0, symName: __ZNSt3__16vectorIP13FibonacciNodeNS_9allocatorIS2_EEE26__swap_out_circular_bufferERNS_14__split_bufferIS2_RS4_EE, symObjAddr: 0x4F74, symBinAddr: 0x100009054, symSize: 0x110 }
  - { offsetInCU: 0xD658, offset: 0xD658, size: 0x8, addend: 0x0, symName: __Z6getLenP11LeftistHeap, symObjAddr: 0x0, symBinAddr: 0x1000040E0, symSize: 0x44 }
  - { offsetInCU: 0xD684, offset: 0xD684, size: 0x8, addend: 0x0, symName: __Z4initi, symObjAddr: 0x44, symBinAddr: 0x100004124, symSize: 0x44 }
  - { offsetInCU: 0xD6BE, offset: 0xD6BE, size: 0x8, addend: 0x0, symName: __Z5mergeP11LeftistHeapS0_, symObjAddr: 0x88, symBinAddr: 0x100004168, symSize: 0x11C }
  - { offsetInCU: 0xD6F9, offset: 0xD6F9, size: 0x8, addend: 0x0, symName: __Z6insertRP11LeftistHeapi, symObjAddr: 0x1E0, symBinAddr: 0x1000042C0, symSize: 0xA4 }
  - { offsetInCU: 0xD74C, offset: 0xD74C, size: 0x8, addend: 0x0, symName: __Z9deleteMinRP11LeftistHeap, symObjAddr: 0x284, symBinAddr: 0x100004364, symSize: 0x8C }
  - { offsetInCU: 0xD782, offset: 0xD782, size: 0x8, addend: 0x0, symName: __Z6getminP11LeftistHeap, symObjAddr: 0x310, symBinAddr: 0x1000043F0, symSize: 0x44 }
  - { offsetInCU: 0xD7AF, offset: 0xD7AF, size: 0x8, addend: 0x0, symName: __Z16inOrderTraversalP11LeftistHeap, symObjAddr: 0x354, symBinAddr: 0x100004434, symSize: 0xA4 }
  - { offsetInCU: 0xD7D8, offset: 0xD7D8, size: 0x8, addend: 0x0, symName: __Z6delAllRP11LeftistHeap, symObjAddr: 0x440, symBinAddr: 0x100004520, symSize: 0x44 }
  - { offsetInCU: 0xD800, offset: 0xD800, size: 0x8, addend: 0x0, symName: __Z14compare_insertRP11LeftistHeapR13FibonacciHeapR8SkewHeapR7MinHeap, symObjAddr: 0x484, symBinAddr: 0x100004564, symSize: 0x4CC }
  - { offsetInCU: 0xD9E8, offset: 0xD9E8, size: 0x8, addend: 0x0, symName: __ZNSt3__16vectorIiNS_9allocatorIiEEEC1Em, symObjAddr: 0x950, symBinAddr: 0x100004A30, symSize: 0x34 }
  - { offsetInCU: 0xDA22, offset: 0xDA22, size: 0x8, addend: 0x0, symName: __ZNSt3__16vectorIiNS_9allocatorIiEEEixB8ue170006Em, symObjAddr: 0x984, symBinAddr: 0x100004A64, symSize: 0x24 }
  - { offsetInCU: 0xDA5D, offset: 0xDA5D, size: 0x8, addend: 0x0, symName: __ZNSt3__16chrono8durationIdNS_5ratioILl1ELl1EEEEC1B8ue170006IxNS2_ILl1ELl1000000000EEEEERKNS1_IT_T0_EEPNS_9enable_ifIXaasr13__no_overflowIS8_S3_EE5valueooL_ZNS_17integral_constantIbLb1EE5valueEEaaeqsr13__no_overflowIS8_S3_E4typeE3denLi1Entsr23treat_as_floating_pointIS7_EE5valueEvE4typeE, symObjAddr: 0xA00, symBinAddr: 0x100004AE0, symSize: 0x3C }
  - { offsetInCU: 0xDAB2, offset: 0xDAB2, size: 0x8, addend: 0x0, symName: __ZNKSt3__16chrono8durationIdNS_5ratioILl1ELl1EEEE5countB8ue170006Ev, symObjAddr: 0xA3C, symBinAddr: 0x100004B1C, symSize: 0x18 }
  - { offsetInCU: 0xDBC1, offset: 0xDBC1, size: 0x8, addend: 0x0, symName: __ZN13FibonacciHeap6insertEi, symObjAddr: 0xA54, symBinAddr: 0x100004B34, symSize: 0x114 }
  - { offsetInCU: 0xDD0B, offset: 0xDD0B, size: 0x8, addend: 0x0, symName: __ZN8SkewHeap6insertEi, symObjAddr: 0xB68, symBinAddr: 0x100004C48, symSize: 0x84 }
  - { offsetInCU: 0xDE7D, offset: 0xDE7D, size: 0x8, addend: 0x0, symName: __ZN7MinHeap6insertEi, symObjAddr: 0xBEC, symBinAddr: 0x100004CCC, symSize: 0x50 }
  - { offsetInCU: 0xDEAF, offset: 0xDEAF, size: 0x8, addend: 0x0, symName: __ZNSt3__113basic_ostreamIcNS_11char_traitsIcEEElsB8ue170006EPFRS3_S4_E, symObjAddr: 0xC3C, symBinAddr: 0x100004D1C, symSize: 0x2C }
  - { offsetInCU: 0xDEE2, offset: 0xDEE2, size: 0x8, addend: 0x0, symName: __ZNSt3__16vectorIiNS_9allocatorIiEEED1B8ue170006Ev, symObjAddr: 0xCC0, symBinAddr: 0x100004DA0, symSize: 0x2C }
  - { offsetInCU: 0xDF0A, offset: 0xDF0A, size: 0x8, addend: 0x0, symName: __Z14compare_getminiRP11LeftistHeapR13FibonacciHeapR8SkewHeapR7MinHeap, symObjAddr: 0xCEC, symBinAddr: 0x100004DCC, symSize: 0x2C8 }
  - { offsetInCU: 0xE0A5, offset: 0xE0A5, size: 0x8, addend: 0x0, symName: __ZN13FibonacciHeap10extractMinEv, symObjAddr: 0xFB4, symBinAddr: 0x100005094, symSize: 0x204 }
  - { offsetInCU: 0xE10A, offset: 0xE10A, size: 0x8, addend: 0x0, symName: __ZN8SkewHeap10extractMinEv, symObjAddr: 0x11B8, symBinAddr: 0x100005298, symSize: 0xEC }
  - { offsetInCU: 0xE14A, offset: 0xE14A, size: 0x8, addend: 0x0, symName: __ZN7MinHeap9deleteMinEv, symObjAddr: 0x12A4, symBinAddr: 0x100005384, symSize: 0xC8 }
  - { offsetInCU: 0xE16E, offset: 0xE16E, size: 0x8, addend: 0x0, symName: __Z13compare_mergev, symObjAddr: 0x136C, symBinAddr: 0x10000544C, symSize: 0x4A8 }
  - { offsetInCU: 0xE2D3, offset: 0xE2D3, size: 0x8, addend: 0x0, symName: __ZN13FibonacciHeapC1Ev, symObjAddr: 0x1814, symBinAddr: 0x1000058F4, symSize: 0x2C }
  - { offsetInCU: 0xE2FC, offset: 0xE2FC, size: 0x8, addend: 0x0, symName: __ZN8SkewHeapC1Ev, symObjAddr: 0x1840, symBinAddr: 0x100005920, symSize: 0x2C }
  - { offsetInCU: 0xE325, offset: 0xE325, size: 0x8, addend: 0x0, symName: __ZN7MinHeapC1Ev, symObjAddr: 0x186C, symBinAddr: 0x10000594C, symSize: 0x2C }
  - { offsetInCU: 0xE34F, offset: 0xE34F, size: 0x8, addend: 0x0, symName: __ZN13FibonacciHeap3delEv, symObjAddr: 0x1898, symBinAddr: 0x100005978, symSize: 0x44 }
  - { offsetInCU: 0xE373, offset: 0xE373, size: 0x8, addend: 0x0, symName: __ZN8SkewHeap3delEv, symObjAddr: 0x18DC, symBinAddr: 0x1000059BC, symSize: 0x44 }
  - { offsetInCU: 0xE398, offset: 0xE398, size: 0x8, addend: 0x0, symName: __ZN7MinHeapD1Ev, symObjAddr: 0x1920, symBinAddr: 0x100005A00, symSize: 0x2C }
  - { offsetInCU: 0xE3C3, offset: 0xE3C3, size: 0x8, addend: 0x0, symName: _main, symObjAddr: 0x194C, symBinAddr: 0x100005A2C, symSize: 0x2C }
  - { offsetInCU: 0xE3FC, offset: 0xE3FC, size: 0x8, addend: 0x0, symName: __ZNKSt3__16chrono10time_pointINS0_12steady_clockENS0_8durationIxNS_5ratioILl1ELl1000000000EEEEEE16time_since_epochB8ue170006Ev, symObjAddr: 0x19E8, symBinAddr: 0x100005AC8, symSize: 0x20 }
  - { offsetInCU: 0xE421, offset: 0xE421, size: 0x8, addend: 0x0, symName: __ZNKSt3__16chrono8durationIxNS_5ratioILl1ELl1000000000EEEE5countB8ue170006Ev, symObjAddr: 0x1A08, symBinAddr: 0x100005AE8, symSize: 0x18 }
  - { offsetInCU: 0xE450, offset: 0xE450, size: 0x8, addend: 0x0, symName: __ZNSt3__16chrono8durationIxNS_5ratioILl1ELl1000000000EEEEC1B8ue170006IxEERKT_PNS_9enable_ifIXaasr14is_convertibleIS8_xEE5valueooL_ZNS_17integral_constantIbLb0EE5valueEEntsr23treat_as_floating_pointIS6_EE5valueEvE4typeE, symObjAddr: 0x1A20, symBinAddr: 0x100005B00, symSize: 0x3C }
  - { offsetInCU: 0xE49B, offset: 0xE49B, size: 0x8, addend: 0x0, symName: __ZNSt3__16chrono8durationIxNS_5ratioILl1ELl1000000000EEEEC2B8ue170006IxEERKT_PNS_9enable_ifIXaasr14is_convertibleIS8_xEE5valueooL_ZNS_17integral_constantIbLb0EE5valueEEntsr23treat_as_floating_pointIS6_EE5valueEvE4typeE, symObjAddr: 0x1A5C, symBinAddr: 0x100005B3C, symSize: 0x28 }
  - { offsetInCU: 0xE4E6, offset: 0xE4E6, size: 0x8, addend: 0x0, symName: __ZNSt3__16chrono8durationIdNS_5ratioILl1ELl1EEEEC2B8ue170006IxNS2_ILl1ELl1000000000EEEEERKNS1_IT_T0_EEPNS_9enable_ifIXaasr13__no_overflowIS8_S3_EE5valueooL_ZNS_17integral_constantIbLb1EE5valueEEaaeqsr13__no_overflowIS8_S3_E4typeE3denLi1Entsr23treat_as_floating_pointIS7_EE5valueEvE4typeE, symObjAddr: 0x1A84, symBinAddr: 0x100005B64, symSize: 0x48 }
  - { offsetInCU: 0xE545, offset: 0xE545, size: 0x8, addend: 0x0, symName: __ZNSt3__16chrono8durationIdNS_5ratioILl1ELl1EEEEC1B8ue170006IdEERKT_PNS_9enable_ifIXaasr14is_convertibleIS8_dEE5valueooL_ZNS_17integral_constantIbLb1EE5valueEEntsr23treat_as_floating_pointIS6_EE5valueEvE4typeE, symObjAddr: 0x1B4C, symBinAddr: 0x100005C2C, symSize: 0x3C }
  - { offsetInCU: 0xE590, offset: 0xE590, size: 0x8, addend: 0x0, symName: __ZNSt3__16chrono8durationIdNS_5ratioILl1ELl1EEEEC2B8ue170006IdEERKT_PNS_9enable_ifIXaasr14is_convertibleIS8_dEE5valueooL_ZNS_17integral_constantIbLb1EE5valueEEntsr23treat_as_floating_pointIS6_EE5valueEvE4typeE, symObjAddr: 0x1B88, symBinAddr: 0x100005C68, symSize: 0x28 }
  - { offsetInCU: 0xE5DB, offset: 0xE5DB, size: 0x8, addend: 0x0, symName: __ZN13FibonacciNodeC1Ei, symObjAddr: 0x1BB0, symBinAddr: 0x100005C90, symSize: 0x34 }
  - { offsetInCU: 0xE612, offset: 0xE612, size: 0x8, addend: 0x0, symName: __ZN13FibonacciNodeC2Ei, symObjAddr: 0x1BE4, symBinAddr: 0x100005CC4, symSize: 0x40 }
  - { offsetInCU: 0xE649, offset: 0xE649, size: 0x8, addend: 0x0, symName: __ZN12SkewHeapNodeC1Ei, symObjAddr: 0x1C24, symBinAddr: 0x100005D04, symSize: 0x34 }
  - { offsetInCU: 0xE67F, offset: 0xE67F, size: 0x8, addend: 0x0, symName: __ZN8SkewHeap5mergeEP12SkewHeapNodeS1_, symObjAddr: 0x1C58, symBinAddr: 0x100005D38, symSize: 0xDC }
  - { offsetInCU: 0xE6C0, offset: 0xE6C0, size: 0x8, addend: 0x0, symName: __ZN12SkewHeapNodeC2Ei, symObjAddr: 0x1D34, symBinAddr: 0x100005E14, symSize: 0x28 }
  - { offsetInCU: 0xE6F7, offset: 0xE6F7, size: 0x8, addend: 0x0, symName: __ZNSt3__16vectorIiNS_9allocatorIiEEE9push_backB8ue170006ERKi, symObjAddr: 0x1D98, symBinAddr: 0x100005E78, symSize: 0x6C }
  - { offsetInCU: 0xE72B, offset: 0xE72B, size: 0x8, addend: 0x0, symName: __ZN7MinHeap9heapifyUpEi, symObjAddr: 0x1E04, symBinAddr: 0x100005EE4, symSize: 0xF8 }
  - { offsetInCU: 0xE75E, offset: 0xE75E, size: 0x8, addend: 0x0, symName: __ZNKSt3__16vectorIiNS_9allocatorIiEEE4sizeB8ue170006Ev, symObjAddr: 0x1EFC, symBinAddr: 0x100005FDC, symSize: 0x28 }
  - { offsetInCU: 0xE782, offset: 0xE782, size: 0x8, addend: 0x0, symName: __ZNSt3__16vectorIiNS_9allocatorIiEEE9__end_capB8ue170006Ev, symObjAddr: 0x1F24, symBinAddr: 0x100006004, symSize: 0x28 }
  - { offsetInCU: 0xE7A6, offset: 0xE7A6, size: 0x8, addend: 0x0, symName: __ZNSt3__16vectorIiNS_9allocatorIiEEE22__construct_one_at_endB8ue170006IJRKiEEEvDpOT_, symObjAddr: 0x1F4C, symBinAddr: 0x10000602C, symSize: 0x90 }
  - { offsetInCU: 0xE7F4, offset: 0xE7F4, size: 0x8, addend: 0x0, symName: __ZNSt3__16vectorIiNS_9allocatorIiEEE21__push_back_slow_pathIRKiEEvOT_, symObjAddr: 0x1FDC, symBinAddr: 0x1000060BC, symSize: 0xD8 }
  - { offsetInCU: 0xE84F, offset: 0xE84F, size: 0x8, addend: 0x0, symName: __ZNSt3__117__compressed_pairIPiNS_9allocatorIiEEE5firstB8ue170006Ev, symObjAddr: 0x20B4, symBinAddr: 0x100006194, symSize: 0x24 }
  - { offsetInCU: 0xE874, offset: 0xE874, size: 0x8, addend: 0x0, symName: __ZNSt3__122__compressed_pair_elemIPiLi0ELb0EE5__getB8ue170006Ev, symObjAddr: 0x20D8, symBinAddr: 0x1000061B8, symSize: 0x14 }
  - { offsetInCU: 0xE8B2, offset: 0xE8B2, size: 0x8, addend: 0x0, symName: __ZNSt3__16vectorIiNS_9allocatorIiEEE21_ConstructTransactionC1B8ue170006ERS3_m, symObjAddr: 0x20EC, symBinAddr: 0x1000061CC, symSize: 0x3C }
  - { offsetInCU: 0xE8F9, offset: 0xE8F9, size: 0x8, addend: 0x0, symName: __ZNSt3__116allocator_traitsINS_9allocatorIiEEE9constructB8ue170006IiJRKiEvEEvRS2_PT_DpOT0_, symObjAddr: 0x2128, symBinAddr: 0x100006208, symSize: 0x34 }
  - { offsetInCU: 0xE94F, offset: 0xE94F, size: 0x8, addend: 0x0, symName: __ZNSt3__16vectorIiNS_9allocatorIiEEE7__allocB8ue170006Ev, symObjAddr: 0x215C, symBinAddr: 0x10000623C, symSize: 0x28 }
  - { offsetInCU: 0xE974, offset: 0xE974, size: 0x8, addend: 0x0, symName: __ZNSt3__16vectorIiNS_9allocatorIiEEE21_ConstructTransactionD1B8ue170006Ev, symObjAddr: 0x2198, symBinAddr: 0x100006278, symSize: 0x2C }
  - { offsetInCU: 0xE99D, offset: 0xE99D, size: 0x8, addend: 0x0, symName: __ZNSt3__16vectorIiNS_9allocatorIiEEE21_ConstructTransactionC2B8ue170006ERS3_m, symObjAddr: 0x21C4, symBinAddr: 0x1000062A4, symSize: 0x44 }
  - { offsetInCU: 0xE9E4, offset: 0xE9E4, size: 0x8, addend: 0x0, symName: __ZNSt3__19allocatorIiE9constructB8ue170006IiJRKiEEEvPT_DpOT0_, symObjAddr: 0x2208, symBinAddr: 0x1000062E8, symSize: 0x28 }
  - { offsetInCU: 0xEA38, offset: 0xEA38, size: 0x8, addend: 0x0, symName: __ZNSt3__117__compressed_pairIPiNS_9allocatorIiEEE6secondB8ue170006Ev, symObjAddr: 0x2230, symBinAddr: 0x100006310, symSize: 0x24 }
  - { offsetInCU: 0xEA5D, offset: 0xEA5D, size: 0x8, addend: 0x0, symName: __ZNSt3__122__compressed_pair_elemINS_9allocatorIiEELi1ELb1EE5__getB8ue170006Ev, symObjAddr: 0x2254, symBinAddr: 0x100006334, symSize: 0x14 }
  - { offsetInCU: 0xEA82, offset: 0xEA82, size: 0x8, addend: 0x0, symName: __ZNSt3__16vectorIiNS_9allocatorIiEEE21_ConstructTransactionD2B8ue170006Ev, symObjAddr: 0x2268, symBinAddr: 0x100006348, symSize: 0x20 }
  - { offsetInCU: 0xEAAB, offset: 0xEAAB, size: 0x8, addend: 0x0, symName: __ZNKSt3__16vectorIiNS_9allocatorIiEEE11__recommendB8ue170006Em, symObjAddr: 0x2288, symBinAddr: 0x100006368, symSize: 0xB4 }
  - { offsetInCU: 0xEAFE, offset: 0xEAFE, size: 0x8, addend: 0x0, symName: __ZNSt3__114__split_bufferIiRNS_9allocatorIiEEEC1EmmS3_, symObjAddr: 0x233C, symBinAddr: 0x10000641C, symSize: 0x44 }
  - { offsetInCU: 0xEB53, offset: 0xEB53, size: 0x8, addend: 0x0, symName: __ZNSt3__114__split_bufferIiRNS_9allocatorIiEEED1Ev, symObjAddr: 0x2490, symBinAddr: 0x100006570, symSize: 0x2C }
  - { offsetInCU: 0xEB7E, offset: 0xEB7E, size: 0x8, addend: 0x0, symName: __ZNKSt3__16vectorIiNS_9allocatorIiEEE8max_sizeEv, symObjAddr: 0x24BC, symBinAddr: 0x10000659C, symSize: 0x60 }
  - { offsetInCU: 0xEBA3, offset: 0xEBA3, size: 0x8, addend: 0x0, symName: __ZNKSt3__16vectorIiNS_9allocatorIiEEE20__throw_length_errorB8ue170006Ev, symObjAddr: 0x251C, symBinAddr: 0x1000065FC, symSize: 0x1C }
  - { offsetInCU: 0xEBC7, offset: 0xEBC7, size: 0x8, addend: 0x0, symName: __ZNKSt3__16vectorIiNS_9allocatorIiEEE8capacityB8ue170006Ev, symObjAddr: 0x2538, symBinAddr: 0x100006618, symSize: 0x40 }
  - { offsetInCU: 0xEBF6, offset: 0xEBF6, size: 0x8, addend: 0x0, symName: __ZNSt3__116allocator_traitsINS_9allocatorIiEEE8max_sizeB8ue170006IS2_vEEmRKS2_, symObjAddr: 0x25D0, symBinAddr: 0x1000066B0, symSize: 0x24 }
  - { offsetInCU: 0xEC23, offset: 0xEC23, size: 0x8, addend: 0x0, symName: __ZNKSt3__16vectorIiNS_9allocatorIiEEE7__allocB8ue170006Ev, symObjAddr: 0x25F4, symBinAddr: 0x1000066D4, symSize: 0x28 }
  - { offsetInCU: 0xEC48, offset: 0xEC48, size: 0x8, addend: 0x0, symName: __ZNSt3__114numeric_limitsIlE3maxB8ue170006Ev, symObjAddr: 0x261C, symBinAddr: 0x1000066FC, symSize: 0x14 }
  - { offsetInCU: 0xEC70, offset: 0xEC70, size: 0x8, addend: 0x0, symName: __ZNKSt3__16__lessIvvEclB8ue170006ImmEEbRKT_RKT0_, symObjAddr: 0x2690, symBinAddr: 0x100006770, symSize: 0x34 }
  - { offsetInCU: 0xECC3, offset: 0xECC3, size: 0x8, addend: 0x0, symName: __ZNKSt3__19allocatorIiE8max_sizeB8ue170006Ev, symObjAddr: 0x26C4, symBinAddr: 0x1000067A4, symSize: 0x14 }
  - { offsetInCU: 0xECE7, offset: 0xECE7, size: 0x8, addend: 0x0, symName: __ZNKSt3__117__compressed_pairIPiNS_9allocatorIiEEE6secondB8ue170006Ev, symObjAddr: 0x26D8, symBinAddr: 0x1000067B8, symSize: 0x24 }
  - { offsetInCU: 0xED0C, offset: 0xED0C, size: 0x8, addend: 0x0, symName: __ZNKSt3__122__compressed_pair_elemINS_9allocatorIiEELi1ELb1EE5__getB8ue170006Ev, symObjAddr: 0x26FC, symBinAddr: 0x1000067DC, symSize: 0x14 }
  - { offsetInCU: 0xED31, offset: 0xED31, size: 0x8, addend: 0x0, symName: __ZNSt3__123__libcpp_numeric_limitsIlLb1EE3maxB8ue170006Ev, symObjAddr: 0x2710, symBinAddr: 0x1000067F0, symSize: 0x8 }
  - { offsetInCU: 0xED45, offset: 0xED45, size: 0x8, addend: 0x0, symName: __ZNSt12length_errorC1B8ue170006EPKc, symObjAddr: 0x277C, symBinAddr: 0x10000685C, symSize: 0x34 }
  - { offsetInCU: 0xED7C, offset: 0xED7C, size: 0x8, addend: 0x0, symName: __ZNSt12length_errorC2B8ue170006EPKc, symObjAddr: 0x27B0, symBinAddr: 0x100006890, symSize: 0x4C }
  - { offsetInCU: 0xEDB2, offset: 0xEDB2, size: 0x8, addend: 0x0, symName: __ZNKSt3__16vectorIiNS_9allocatorIiEEE9__end_capB8ue170006Ev, symObjAddr: 0x27FC, symBinAddr: 0x1000068DC, symSize: 0x28 }
  - { offsetInCU: 0xEDD6, offset: 0xEDD6, size: 0x8, addend: 0x0, symName: __ZNKSt3__117__compressed_pairIPiNS_9allocatorIiEEE5firstB8ue170006Ev, symObjAddr: 0x2824, symBinAddr: 0x100006904, symSize: 0x24 }
  - { offsetInCU: 0xEDFB, offset: 0xEDFB, size: 0x8, addend: 0x0, symName: __ZNKSt3__122__compressed_pair_elemIPiLi0ELb0EE5__getB8ue170006Ev, symObjAddr: 0x2848, symBinAddr: 0x100006928, symSize: 0x14 }
  - { offsetInCU: 0xEE20, offset: 0xEE20, size: 0x8, addend: 0x0, symName: __ZNSt3__114__split_bufferIiRNS_9allocatorIiEEEC2EmmS3_, symObjAddr: 0x28B0, symBinAddr: 0x100006990, symSize: 0xD4 }
  - { offsetInCU: 0xEE97, offset: 0xEE97, size: 0x8, addend: 0x0, symName: __ZNSt3__117__compressed_pairIPiRNS_9allocatorIiEEEC1B8ue170006IDnS4_EEOT_OT0_, symObjAddr: 0x2984, symBinAddr: 0x100006A64, symSize: 0x3C }
  - { offsetInCU: 0xEEED, offset: 0xEEED, size: 0x8, addend: 0x0, symName: __ZNSt3__114__split_bufferIiRNS_9allocatorIiEEE7__allocB8ue170006Ev, symObjAddr: 0x2A00, symBinAddr: 0x100006AE0, symSize: 0x28 }
  - { offsetInCU: 0xEF11, offset: 0xEF11, size: 0x8, addend: 0x0, symName: __ZNSt3__114__split_bufferIiRNS_9allocatorIiEEE9__end_capB8ue170006Ev, symObjAddr: 0x2A28, symBinAddr: 0x100006B08, symSize: 0x28 }
  - { offsetInCU: 0xEF36, offset: 0xEF36, size: 0x8, addend: 0x0, symName: __ZNSt3__117__compressed_pairIPiRNS_9allocatorIiEEEC2B8ue170006IDnS4_EEOT_OT0_, symObjAddr: 0x2A50, symBinAddr: 0x100006B30, symSize: 0x48 }
  - { offsetInCU: 0xEF8D, offset: 0xEF8D, size: 0x8, addend: 0x0, symName: __ZNSt3__122__compressed_pair_elemIPiLi0ELb0EEC2B8ue170006IDnvEEOT_, symObjAddr: 0x2A98, symBinAddr: 0x100006B78, symSize: 0x1C }
  - { offsetInCU: 0xEFCE, offset: 0xEFCE, size: 0x8, addend: 0x0, symName: __ZNSt3__122__compressed_pair_elemIRNS_9allocatorIiEELi1ELb0EEC2B8ue170006IS3_vEEOT_, symObjAddr: 0x2AB4, symBinAddr: 0x100006B94, symSize: 0x20 }
  - { offsetInCU: 0xF00E, offset: 0xF00E, size: 0x8, addend: 0x0, symName: __ZNSt3__19allocatorIiE8allocateB8ue170006Em, symObjAddr: 0x2AD4, symBinAddr: 0x100006BB4, symSize: 0x58 }
  - { offsetInCU: 0xF040, offset: 0xF040, size: 0x8, addend: 0x0, symName: __ZNSt3__117__compressed_pairIPiRNS_9allocatorIiEEE6secondB8ue170006Ev, symObjAddr: 0x2C30, symBinAddr: 0x100006D10, symSize: 0x28 }
  - { offsetInCU: 0xF065, offset: 0xF065, size: 0x8, addend: 0x0, symName: __ZNSt3__122__compressed_pair_elemIRNS_9allocatorIiEELi1ELb0EE5__getB8ue170006Ev, symObjAddr: 0x2C58, symBinAddr: 0x100006D38, symSize: 0x18 }
  - { offsetInCU: 0xF089, offset: 0xF089, size: 0x8, addend: 0x0, symName: __ZNSt3__117__compressed_pairIPiRNS_9allocatorIiEEE5firstB8ue170006Ev, symObjAddr: 0x2C70, symBinAddr: 0x100006D50, symSize: 0x24 }
  - { offsetInCU: 0xF0AD, offset: 0xF0AD, size: 0x8, addend: 0x0, symName: __ZNKSt3__16vectorIiNS_9allocatorIiEEE17__annotate_deleteB8ue170006Ev, symObjAddr: 0x2C94, symBinAddr: 0x100006D74, symSize: 0xB8 }
  - { offsetInCU: 0xF0D2, offset: 0xF0D2, size: 0x8, addend: 0x0, symName: __ZNSt3__116reverse_iteratorIPiEC1B8ue170006ES1_, symObjAddr: 0x2DC4, symBinAddr: 0x100006EA4, symSize: 0x34 }
  - { offsetInCU: 0xF109, offset: 0xF109, size: 0x8, addend: 0x0, symName: __ZNKSt3__116reverse_iteratorIPiE4baseB8ue170006Ev, symObjAddr: 0x2DF8, symBinAddr: 0x100006ED8, symSize: 0x18 }
  - { offsetInCU: 0xF12D, offset: 0xF12D, size: 0x8, addend: 0x0, symName: __ZNKSt3__16vectorIiNS_9allocatorIiEEE14__annotate_newB8ue170006Em, symObjAddr: 0x2E4C, symBinAddr: 0x100006F2C, symSize: 0xAC }
  - { offsetInCU: 0xF161, offset: 0xF161, size: 0x8, addend: 0x0, symName: __ZNKSt3__16vectorIiNS_9allocatorIiEEE31__annotate_contiguous_containerB8ue170006EPKvS5_S5_S5_, symObjAddr: 0x2EF8, symBinAddr: 0x100006FD8, symSize: 0x20 }
  - { offsetInCU: 0xF1B1, offset: 0xF1B1, size: 0x8, addend: 0x0, symName: __ZNKSt3__16vectorIiNS_9allocatorIiEEE4dataB8ue170006Ev, symObjAddr: 0x2F18, symBinAddr: 0x100006FF8, symSize: 0x28 }
  - { offsetInCU: 0xF1F8, offset: 0xF1F8, size: 0x8, addend: 0x0, symName: __ZNKSt3__111__move_loopINS_17_ClassicAlgPolicyEEclB8ue170006INS_16reverse_iteratorIPiEES6_S6_EENS_4pairIT_T1_EES8_T0_S9_, symObjAddr: 0x3230, symBinAddr: 0x100007310, symSize: 0xA0 }
  - { offsetInCU: 0xF267, offset: 0xF267, size: 0x8, addend: 0x0, symName: __ZNSt3__18_IterOpsINS_17_ClassicAlgPolicyEE11__iter_moveB8ue170006IRNS_16reverse_iteratorIPiEEEENS_9enable_ifIXsr12is_referenceIDTdeclsr3stdE7declvalIRT_EEEEE5valueEDTclsr3stdE4movedeclsr3stdE7declvalISA_EEEEE4typeEOS9_, symObjAddr: 0x3464, symBinAddr: 0x100007544, symSize: 0x28 }
  - { offsetInCU: 0xF293, offset: 0xF293, size: 0x8, addend: 0x0, symName: __ZNKSt3__116reverse_iteratorIPiEdeB8ue170006Ev, symObjAddr: 0x348C, symBinAddr: 0x10000756C, symSize: 0x28 }
  - { offsetInCU: 0xF2C6, offset: 0xF2C6, size: 0x8, addend: 0x0, symName: __ZNSt3__116reverse_iteratorIPiEppB8ue170006Ev, symObjAddr: 0x34B4, symBinAddr: 0x100007594, symSize: 0x20 }
  - { offsetInCU: 0xF2EB, offset: 0xF2EB, size: 0x8, addend: 0x0, symName: __ZNSt3__18_IterOpsINS_17_ClassicAlgPolicyEE25__validate_iter_referenceB8ue170006IRNS_16reverse_iteratorIPiEEEEvv, symObjAddr: 0x34D4, symBinAddr: 0x1000075B4, symSize: 0x4 }
  - { offsetInCU: 0xF309, offset: 0xF309, size: 0x8, addend: 0x0, symName: __ZNSt3__118__unwrap_iter_implINS_16reverse_iteratorIPiEELb0EE8__unwrapB8ue170006ES3_, symObjAddr: 0x34D8, symBinAddr: 0x1000075B8, symSize: 0x24 }
  - { offsetInCU: 0xF331, offset: 0xF331, size: 0x8, addend: 0x0, symName: __ZNSt3__14pairINS_16reverse_iteratorIPiEES3_EC1B8ue170006IS3_S3_LPv0EEEOT_OT0_, symObjAddr: 0x34FC, symBinAddr: 0x1000075DC, symSize: 0x3C }
  - { offsetInCU: 0xF38E, offset: 0xF38E, size: 0x8, addend: 0x0, symName: __ZNSt3__14pairINS_16reverse_iteratorIPiEES3_EC2B8ue170006IS3_S3_LPv0EEEOT_OT0_, symObjAddr: 0x3538, symBinAddr: 0x100007618, symSize: 0x34 }
  - { offsetInCU: 0xF3EB, offset: 0xF3EB, size: 0x8, addend: 0x0, symName: __ZNSt3__118__unwrap_iter_implINS_16reverse_iteratorIPiEELb0EE8__rewrapB8ue170006ES3_S3_, symObjAddr: 0x356C, symBinAddr: 0x10000764C, symSize: 0x2C }
  - { offsetInCU: 0xF419, offset: 0xF419, size: 0x8, addend: 0x0, symName: __ZNSt3__116reverse_iteratorIPiEC2B8ue170006ES1_, symObjAddr: 0x3598, symBinAddr: 0x100007678, symSize: 0x28 }
  - { offsetInCU: 0xF450, offset: 0xF450, size: 0x8, addend: 0x0, symName: __ZNSt3__114__split_bufferIiRNS_9allocatorIiEEED2Ev, symObjAddr: 0x35C0, symBinAddr: 0x1000076A0, symSize: 0x8C }
  - { offsetInCU: 0xF47A, offset: 0xF47A, size: 0x8, addend: 0x0, symName: __ZNSt3__114__split_bufferIiRNS_9allocatorIiEEE5clearB8ue170006Ev, symObjAddr: 0x364C, symBinAddr: 0x10000772C, symSize: 0x28 }
  - { offsetInCU: 0xF49F, offset: 0xF49F, size: 0x8, addend: 0x0, symName: __ZNSt3__116allocator_traitsINS_9allocatorIiEEE10deallocateB8ue170006ERS2_Pim, symObjAddr: 0x3674, symBinAddr: 0x100007754, symSize: 0x34 }
  - { offsetInCU: 0xF4E0, offset: 0xF4E0, size: 0x8, addend: 0x0, symName: __ZNKSt3__114__split_bufferIiRNS_9allocatorIiEEE8capacityB8ue170006Ev, symObjAddr: 0x36A8, symBinAddr: 0x100007788, symSize: 0x40 }
  - { offsetInCU: 0xF504, offset: 0xF504, size: 0x8, addend: 0x0, symName: __ZNSt3__114__split_bufferIiRNS_9allocatorIiEEE17__destruct_at_endB8ue170006EPi, symObjAddr: 0x36E8, symBinAddr: 0x1000077C8, symSize: 0x2C }
  - { offsetInCU: 0xF537, offset: 0xF537, size: 0x8, addend: 0x0, symName: __ZNSt3__114__split_bufferIiRNS_9allocatorIiEEE17__destruct_at_endB8ue170006EPiNS_17integral_constantIbLb0EEE, symObjAddr: 0x3714, symBinAddr: 0x1000077F4, symSize: 0x80 }
  - { offsetInCU: 0xF576, offset: 0xF576, size: 0x8, addend: 0x0, symName: __ZNSt3__116allocator_traitsINS_9allocatorIiEEE7destroyB8ue170006IivEEvRS2_PT_, symObjAddr: 0x3794, symBinAddr: 0x100007874, symSize: 0x2C }
  - { offsetInCU: 0xF5B3, offset: 0xF5B3, size: 0x8, addend: 0x0, symName: __ZNSt3__19allocatorIiE7destroyB8ue170006EPi, symObjAddr: 0x37C0, symBinAddr: 0x1000078A0, symSize: 0x14 }
  - { offsetInCU: 0xF5E5, offset: 0xF5E5, size: 0x8, addend: 0x0, symName: __ZNSt3__19allocatorIiE10deallocateB8ue170006EPim, symObjAddr: 0x37D4, symBinAddr: 0x1000078B4, symSize: 0x40 }
  - { offsetInCU: 0xF625, offset: 0xF625, size: 0x8, addend: 0x0, symName: __ZNKSt3__114__split_bufferIiRNS_9allocatorIiEEE9__end_capB8ue170006Ev, symObjAddr: 0x391C, symBinAddr: 0x1000079FC, symSize: 0x28 }
  - { offsetInCU: 0xF649, offset: 0xF649, size: 0x8, addend: 0x0, symName: __ZNKSt3__117__compressed_pairIPiRNS_9allocatorIiEEE5firstB8ue170006Ev, symObjAddr: 0x3944, symBinAddr: 0x100007A24, symSize: 0x24 }
  - { offsetInCU: 0xF66E, offset: 0xF66E, size: 0x8, addend: 0x0, symName: __ZN7MinHeap6parentEi, symObjAddr: 0x3968, symBinAddr: 0x100007A48, symSize: 0x24 }
  - { offsetInCU: 0xF6A0, offset: 0xF6A0, size: 0x8, addend: 0x0, symName: __ZN13FibonacciHeap11consolidateEv, symObjAddr: 0x39C8, symBinAddr: 0x100007AA8, symSize: 0x2C0 }
  - { offsetInCU: 0xF7CC, offset: 0xF7CC, size: 0x8, addend: 0x0, symName: __Z4log2B8ue170006IiENSt3__19enable_ifIXsr3std11is_integralIT_EE5valueEdE4typeES2_, symObjAddr: 0x3C88, symBinAddr: 0x100007D68, symSize: 0x30 }
  - { offsetInCU: 0xF804, offset: 0xF804, size: 0x8, addend: 0x0, symName: __ZNSt3__16vectorIP13FibonacciNodeNS_9allocatorIS2_EEEC1EmRKS2_, symObjAddr: 0x3CB8, symBinAddr: 0x100007D98, symSize: 0x3C }
  - { offsetInCU: 0xF84D, offset: 0xF84D, size: 0x8, addend: 0x0, symName: __ZNSt3__16vectorIP13FibonacciNodeNS_9allocatorIS2_EEEC1B8ue170006Ev, symObjAddr: 0x3CF4, symBinAddr: 0x100007DD4, symSize: 0x2C }
  - { offsetInCU: 0xF876, offset: 0xF876, size: 0x8, addend: 0x0, symName: __ZNSt3__16vectorIP13FibonacciNodeNS_9allocatorIS2_EEE9push_backB8ue170006ERKS2_, symObjAddr: 0x3D20, symBinAddr: 0x100007E00, symSize: 0x6C }
  - { offsetInCU: 0xF8AB, offset: 0xF8AB, size: 0x8, addend: 0x0, symName: __ZNSt3__16vectorIP13FibonacciNodeNS_9allocatorIS2_EEE5beginB8ue170006Ev, symObjAddr: 0x3D8C, symBinAddr: 0x100007E6C, symSize: 0x30 }
  - { offsetInCU: 0xF8D1, offset: 0xF8D1, size: 0x8, addend: 0x0, symName: __ZNSt3__16vectorIP13FibonacciNodeNS_9allocatorIS2_EEE3endB8ue170006Ev, symObjAddr: 0x3DBC, symBinAddr: 0x100007E9C, symSize: 0x30 }
  - { offsetInCU: 0xF8F7, offset: 0xF8F7, size: 0x8, addend: 0x0, symName: __ZNKSt3__111__wrap_iterIPP13FibonacciNodeEdeB8ue170006Ev, symObjAddr: 0x3E20, symBinAddr: 0x100007F00, symSize: 0x18 }
  - { offsetInCU: 0xF91C, offset: 0xF91C, size: 0x8, addend: 0x0, symName: __ZNSt3__16vectorIP13FibonacciNodeNS_9allocatorIS2_EEEixB8ue170006Em, symObjAddr: 0x3E38, symBinAddr: 0x100007F18, symSize: 0x24 }
  - { offsetInCU: 0xF952, offset: 0xF952, size: 0x8, addend: 0x0, symName: __ZN13FibonacciHeap4linkEP13FibonacciNodeS1_, symObjAddr: 0x3E98, symBinAddr: 0x100007F78, symSize: 0xF0 }
  - { offsetInCU: 0xF993, offset: 0xF993, size: 0x8, addend: 0x0, symName: __ZNSt3__111__wrap_iterIPP13FibonacciNodeEppB8ue170006Ev, symObjAddr: 0x3F88, symBinAddr: 0x100008068, symSize: 0x20 }
  - { offsetInCU: 0xF9B8, offset: 0xF9B8, size: 0x8, addend: 0x0, symName: __ZNSt3__16vectorIP13FibonacciNodeNS_9allocatorIS2_EEED1B8ue170006Ev, symObjAddr: 0x3FA8, symBinAddr: 0x100008088, symSize: 0x2C }
  - { offsetInCU: 0xF9E1, offset: 0xF9E1, size: 0x8, addend: 0x0, symName: __ZNSt3__16vectorIP13FibonacciNodeNS_9allocatorIS2_EEEC2EmRKS2_, symObjAddr: 0x3FD4, symBinAddr: 0x1000080B4, symSize: 0xDC }
  - { offsetInCU: 0xFA44, offset: 0xFA44, size: 0x8, addend: 0x0, symName: __ZNSt3__117__compressed_pairIPP13FibonacciNodeNS_9allocatorIS2_EEEC1B8ue170006IDnNS_18__default_init_tagEEEOT_OT0_, symObjAddr: 0x40B0, symBinAddr: 0x100008190, symSize: 0x3C }
  - { offsetInCU: 0xFA9B, offset: 0xFA9B, size: 0x8, addend: 0x0, symName: __ZNSt3__16vectorIP13FibonacciNodeNS_9allocatorIS2_EEE16__destroy_vectorC1B8ue170006ERS5_, symObjAddr: 0x412C, symBinAddr: 0x10000820C, symSize: 0x34 }
  - { offsetInCU: 0xFAD2, offset: 0xFAD2, size: 0x8, addend: 0x0, symName: __ZNSt3__16vectorIP13FibonacciNodeNS_9allocatorIS2_EEE11__vallocateB8ue170006Em, symObjAddr: 0x4160, symBinAddr: 0x100008240, symSize: 0xAC }
  - { offsetInCU: 0xFB15, offset: 0xFB15, size: 0x8, addend: 0x0, symName: __ZNSt3__16vectorIP13FibonacciNodeNS_9allocatorIS2_EEE18__construct_at_endEmRKS2_, symObjAddr: 0x420C, symBinAddr: 0x1000082EC, symSize: 0xD0 }
  - { offsetInCU: 0xFB94, offset: 0xFB94, size: 0x8, addend: 0x0, symName: __ZNSt3__128__exception_guard_exceptionsINS_6vectorIP13FibonacciNodeNS_9allocatorIS3_EEE16__destroy_vectorEE10__completeB8ue170006Ev, symObjAddr: 0x42DC, symBinAddr: 0x1000083BC, symSize: 0x1C }
  - { offsetInCU: 0xFBB9, offset: 0xFBB9, size: 0x8, addend: 0x0, symName: __ZNSt3__128__exception_guard_exceptionsINS_6vectorIP13FibonacciNodeNS_9allocatorIS3_EEE16__destroy_vectorEED1B8ue170006Ev, symObjAddr: 0x42F8, symBinAddr: 0x1000083D8, symSize: 0x2C }
  - { offsetInCU: 0xFBE2, offset: 0xFBE2, size: 0x8, addend: 0x0, symName: __ZNSt3__117__compressed_pairIPP13FibonacciNodeNS_9allocatorIS2_EEEC2B8ue170006IDnNS_18__default_init_tagEEEOT_OT0_, symObjAddr: 0x4324, symBinAddr: 0x100008404, symSize: 0x40 }
  - { offsetInCU: 0xFC39, offset: 0xFC39, size: 0x8, addend: 0x0, symName: __ZNSt3__122__compressed_pair_elemIPP13FibonacciNodeLi0ELb0EEC2B8ue170006IDnvEEOT_, symObjAddr: 0x4364, symBinAddr: 0x100008444, symSize: 0x1C }
  - { offsetInCU: 0xFC7A, offset: 0xFC7A, size: 0x8, addend: 0x0, symName: __ZNSt3__122__compressed_pair_elemINS_9allocatorIP13FibonacciNodeEELi1ELb1EEC2B8ue170006ENS_18__default_init_tagE, symObjAddr: 0x4380, symBinAddr: 0x100008460, symSize: 0x2C }
  - { offsetInCU: 0xFCAE, offset: 0xFCAE, size: 0x8, addend: 0x0, symName: __ZNSt3__19allocatorIP13FibonacciNodeEC2B8ue170006Ev, symObjAddr: 0x43AC, symBinAddr: 0x10000848C, symSize: 0x2C }
  - { offsetInCU: 0xFCD7, offset: 0xFCD7, size: 0x8, addend: 0x0, symName: __ZNSt3__116__non_trivial_ifILb1ENS_9allocatorIP13FibonacciNodeEEEC2B8ue170006Ev, symObjAddr: 0x43D8, symBinAddr: 0x1000084B8, symSize: 0x14 }
  - { offsetInCU: 0xFD00, offset: 0xFD00, size: 0x8, addend: 0x0, symName: __ZNSt3__128__exception_guard_exceptionsINS_6vectorIP13FibonacciNodeNS_9allocatorIS3_EEE16__destroy_vectorEEC1B8ue170006ES7_, symObjAddr: 0x43EC, symBinAddr: 0x1000084CC, symSize: 0x34 }
  - { offsetInCU: 0xFD37, offset: 0xFD37, size: 0x8, addend: 0x0, symName: __ZNSt3__128__exception_guard_exceptionsINS_6vectorIP13FibonacciNodeNS_9allocatorIS3_EEE16__destroy_vectorEEC2B8ue170006ES7_, symObjAddr: 0x4420, symBinAddr: 0x100008500, symSize: 0x24 }
  - { offsetInCU: 0xFD6E, offset: 0xFD6E, size: 0x8, addend: 0x0, symName: __ZNSt3__16vectorIP13FibonacciNodeNS_9allocatorIS2_EEE16__destroy_vectorC2B8ue170006ERS5_, symObjAddr: 0x4444, symBinAddr: 0x100008524, symSize: 0x20 }
  - { offsetInCU: 0xFDA6, offset: 0xFDA6, size: 0x8, addend: 0x0, symName: __ZNKSt3__16vectorIP13FibonacciNodeNS_9allocatorIS2_EEE8max_sizeEv, symObjAddr: 0x4464, symBinAddr: 0x100008544, symSize: 0x60 }
  - { offsetInCU: 0xFDCB, offset: 0xFDCB, size: 0x8, addend: 0x0, symName: __ZNKSt3__16vectorIP13FibonacciNodeNS_9allocatorIS2_EEE20__throw_length_errorB8ue170006Ev, symObjAddr: 0x44C4, symBinAddr: 0x1000085A4, symSize: 0x1C }
  - { offsetInCU: 0xFDEF, offset: 0xFDEF, size: 0x8, addend: 0x0, symName: __ZNSt3__16vectorIP13FibonacciNodeNS_9allocatorIS2_EEE7__allocB8ue170006Ev, symObjAddr: 0x4520, symBinAddr: 0x100008600, symSize: 0x28 }
  - { offsetInCU: 0xFE13, offset: 0xFE13, size: 0x8, addend: 0x0, symName: __ZNSt3__16vectorIP13FibonacciNodeNS_9allocatorIS2_EEE9__end_capB8ue170006Ev, symObjAddr: 0x4548, symBinAddr: 0x100008628, symSize: 0x28 }
  - { offsetInCU: 0xFE37, offset: 0xFE37, size: 0x8, addend: 0x0, symName: __ZNKSt3__16vectorIP13FibonacciNodeNS_9allocatorIS2_EEE14__annotate_newB8ue170006Em, symObjAddr: 0x4570, symBinAddr: 0x100008650, symSize: 0xAC }
  - { offsetInCU: 0xFE75, offset: 0xFE75, size: 0x8, addend: 0x0, symName: __ZNSt3__116allocator_traitsINS_9allocatorIP13FibonacciNodeEEE8max_sizeB8ue170006IS4_vEEmRKS4_, symObjAddr: 0x461C, symBinAddr: 0x1000086FC, symSize: 0x24 }
  - { offsetInCU: 0xFEA2, offset: 0xFEA2, size: 0x8, addend: 0x0, symName: __ZNKSt3__16vectorIP13FibonacciNodeNS_9allocatorIS2_EEE7__allocB8ue170006Ev, symObjAddr: 0x4640, symBinAddr: 0x100008720, symSize: 0x28 }
  - { offsetInCU: 0xFEC7, offset: 0xFEC7, size: 0x8, addend: 0x0, symName: __ZNKSt3__19allocatorIP13FibonacciNodeE8max_sizeB8ue170006Ev, symObjAddr: 0x4668, symBinAddr: 0x100008748, symSize: 0x14 }
  - { offsetInCU: 0xFEEB, offset: 0xFEEB, size: 0x8, addend: 0x0, symName: __ZNKSt3__117__compressed_pairIPP13FibonacciNodeNS_9allocatorIS2_EEE6secondB8ue170006Ev, symObjAddr: 0x467C, symBinAddr: 0x10000875C, symSize: 0x24 }
  - { offsetInCU: 0xFF10, offset: 0xFF10, size: 0x8, addend: 0x0, symName: __ZNKSt3__122__compressed_pair_elemINS_9allocatorIP13FibonacciNodeEELi1ELb1EE5__getB8ue170006Ev, symObjAddr: 0x46A0, symBinAddr: 0x100008780, symSize: 0x14 }
  - { offsetInCU: 0xFF34, offset: 0xFF34, size: 0x8, addend: 0x0, symName: __ZNSt3__19allocatorIP13FibonacciNodeE8allocateB8ue170006Em, symObjAddr: 0x46B4, symBinAddr: 0x100008794, symSize: 0x58 }
  - { offsetInCU: 0xFF66, offset: 0xFF66, size: 0x8, addend: 0x0, symName: __ZNSt3__117__compressed_pairIPP13FibonacciNodeNS_9allocatorIS2_EEE6secondB8ue170006Ev, symObjAddr: 0x470C, symBinAddr: 0x1000087EC, symSize: 0x24 }
  - { offsetInCU: 0xFF8B, offset: 0xFF8B, size: 0x8, addend: 0x0, symName: __ZNSt3__122__compressed_pair_elemINS_9allocatorIP13FibonacciNodeEELi1ELb1EE5__getB8ue170006Ev, symObjAddr: 0x4730, symBinAddr: 0x100008810, symSize: 0x14 }
  - { offsetInCU: 0xFFAF, offset: 0xFFAF, size: 0x8, addend: 0x0, symName: __ZNSt3__117__compressed_pairIPP13FibonacciNodeNS_9allocatorIS2_EEE5firstB8ue170006Ev, symObjAddr: 0x4744, symBinAddr: 0x100008824, symSize: 0x24 }
  - { offsetInCU: 0xFFD4, offset: 0xFFD4, size: 0x8, addend: 0x0, symName: __ZNSt3__122__compressed_pair_elemIPP13FibonacciNodeLi0ELb0EE5__getB8ue170006Ev, symObjAddr: 0x4768, symBinAddr: 0x100008848, symSize: 0x14 }
  - { offsetInCU: 0xFFF9, offset: 0xFFF9, size: 0x8, addend: 0x0, symName: __ZNKSt3__16vectorIP13FibonacciNodeNS_9allocatorIS2_EEE31__annotate_contiguous_containerB8ue170006EPKvS7_S7_S7_, symObjAddr: 0x477C, symBinAddr: 0x10000885C, symSize: 0x20 }
  - { offsetInCU: 0x10049, offset: 0x10049, size: 0x8, addend: 0x0, symName: __ZNKSt3__16vectorIP13FibonacciNodeNS_9allocatorIS2_EEE4dataB8ue170006Ev, symObjAddr: 0x479C, symBinAddr: 0x10000887C, symSize: 0x28 }
  - { offsetInCU: 0x1006D, offset: 0x1006D, size: 0x8, addend: 0x0, symName: __ZNKSt3__16vectorIP13FibonacciNodeNS_9allocatorIS2_EEE8capacityB8ue170006Ev, symObjAddr: 0x47C4, symBinAddr: 0x1000088A4, symSize: 0x40 }
  - { offsetInCU: 0x10091, offset: 0x10091, size: 0x8, addend: 0x0, symName: __ZNKSt3__16vectorIP13FibonacciNodeNS_9allocatorIS2_EEE9__end_capB8ue170006Ev, symObjAddr: 0x4818, symBinAddr: 0x1000088F8, symSize: 0x28 }
  - { offsetInCU: 0x100B5, offset: 0x100B5, size: 0x8, addend: 0x0, symName: __ZNKSt3__117__compressed_pairIPP13FibonacciNodeNS_9allocatorIS2_EEE5firstB8ue170006Ev, symObjAddr: 0x4840, symBinAddr: 0x100008920, symSize: 0x24 }
  - { offsetInCU: 0x100DA, offset: 0x100DA, size: 0x8, addend: 0x0, symName: __ZNKSt3__122__compressed_pair_elemIPP13FibonacciNodeLi0ELb0EE5__getB8ue170006Ev, symObjAddr: 0x4864, symBinAddr: 0x100008944, symSize: 0x14 }
  - { offsetInCU: 0x10118, offset: 0x10118, size: 0x8, addend: 0x0, symName: __ZNSt3__16vectorIP13FibonacciNodeNS_9allocatorIS2_EEE21_ConstructTransactionC1B8ue170006ERS5_m, symObjAddr: 0x4878, symBinAddr: 0x100008958, symSize: 0x3C }
  - { offsetInCU: 0x1015F, offset: 0x1015F, size: 0x8, addend: 0x0, symName: __ZNSt3__116allocator_traitsINS_9allocatorIP13FibonacciNodeEEE9constructB8ue170006IS3_JRKS3_EvEEvRS4_PT_DpOT0_, symObjAddr: 0x48B4, symBinAddr: 0x100008994, symSize: 0x34 }
  - { offsetInCU: 0x101B6, offset: 0x101B6, size: 0x8, addend: 0x0, symName: __ZNSt3__16vectorIP13FibonacciNodeNS_9allocatorIS2_EEE21_ConstructTransactionD1B8ue170006Ev, symObjAddr: 0x48E8, symBinAddr: 0x1000089C8, symSize: 0x2C }
  - { offsetInCU: 0x101DF, offset: 0x101DF, size: 0x8, addend: 0x0, symName: __ZNSt3__16vectorIP13FibonacciNodeNS_9allocatorIS2_EEE21_ConstructTransactionC2B8ue170006ERS5_m, symObjAddr: 0x4914, symBinAddr: 0x1000089F4, symSize: 0x44 }
  - { offsetInCU: 0x10226, offset: 0x10226, size: 0x8, addend: 0x0, symName: __ZNSt3__19allocatorIP13FibonacciNodeE9constructB8ue170006IS2_JRKS2_EEEvPT_DpOT0_, symObjAddr: 0x4958, symBinAddr: 0x100008A38, symSize: 0x28 }
  - { offsetInCU: 0x1027B, offset: 0x1027B, size: 0x8, addend: 0x0, symName: __ZNSt3__16vectorIP13FibonacciNodeNS_9allocatorIS2_EEE21_ConstructTransactionD2B8ue170006Ev, symObjAddr: 0x4980, symBinAddr: 0x100008A60, symSize: 0x20 }
  - { offsetInCU: 0x102A4, offset: 0x102A4, size: 0x8, addend: 0x0, symName: __ZNSt3__128__exception_guard_exceptionsINS_6vectorIP13FibonacciNodeNS_9allocatorIS3_EEE16__destroy_vectorEED2B8ue170006Ev, symObjAddr: 0x49A0, symBinAddr: 0x100008A80, symSize: 0x50 }
  - { offsetInCU: 0x102CC, offset: 0x102CC, size: 0x8, addend: 0x0, symName: __ZNSt3__16vectorIP13FibonacciNodeNS_9allocatorIS2_EEE16__destroy_vectorclB8ue170006Ev, symObjAddr: 0x49F0, symBinAddr: 0x100008AD0, symSize: 0x90 }
  - { offsetInCU: 0x102F0, offset: 0x102F0, size: 0x8, addend: 0x0, symName: __ZNSt3__16vectorIP13FibonacciNodeNS_9allocatorIS2_EEE7__clearB8ue170006Ev, symObjAddr: 0x4A80, symBinAddr: 0x100008B60, symSize: 0x28 }
  - { offsetInCU: 0x10314, offset: 0x10314, size: 0x8, addend: 0x0, symName: __ZNKSt3__16vectorIP13FibonacciNodeNS_9allocatorIS2_EEE17__annotate_deleteB8ue170006Ev, symObjAddr: 0x4AA8, symBinAddr: 0x100008B88, symSize: 0xB8 }
  - { offsetInCU: 0x10339, offset: 0x10339, size: 0x8, addend: 0x0, symName: __ZNSt3__116allocator_traitsINS_9allocatorIP13FibonacciNodeEEE10deallocateB8ue170006ERS4_PS3_m, symObjAddr: 0x4B60, symBinAddr: 0x100008C40, symSize: 0x34 }
  - { offsetInCU: 0x1037A, offset: 0x1037A, size: 0x8, addend: 0x0, symName: __ZNSt3__16vectorIP13FibonacciNodeNS_9allocatorIS2_EEE22__base_destruct_at_endB8ue170006EPS2_, symObjAddr: 0x4B94, symBinAddr: 0x100008C74, symSize: 0x8C }
  - { offsetInCU: 0x103BD, offset: 0x103BD, size: 0x8, addend: 0x0, symName: __ZNSt3__116allocator_traitsINS_9allocatorIP13FibonacciNodeEEE7destroyB8ue170006IS3_vEEvRS4_PT_, symObjAddr: 0x4C20, symBinAddr: 0x100008D00, symSize: 0x2C }
  - { offsetInCU: 0x103FA, offset: 0x103FA, size: 0x8, addend: 0x0, symName: __ZNSt3__19allocatorIP13FibonacciNodeE7destroyB8ue170006EPS2_, symObjAddr: 0x4C4C, symBinAddr: 0x100008D2C, symSize: 0x14 }
  - { offsetInCU: 0x1042D, offset: 0x1042D, size: 0x8, addend: 0x0, symName: __ZNKSt3__16vectorIP13FibonacciNodeNS_9allocatorIS2_EEE4sizeB8ue170006Ev, symObjAddr: 0x4C60, symBinAddr: 0x100008D40, symSize: 0x28 }
  - { offsetInCU: 0x10451, offset: 0x10451, size: 0x8, addend: 0x0, symName: __ZNSt3__19allocatorIP13FibonacciNodeE10deallocateB8ue170006EPS2_m, symObjAddr: 0x4C88, symBinAddr: 0x100008D68, symSize: 0x40 }
  - { offsetInCU: 0x10492, offset: 0x10492, size: 0x8, addend: 0x0, symName: __ZNSt3__16vectorIP13FibonacciNodeNS_9allocatorIS2_EEEC2B8ue170006Ev, symObjAddr: 0x4CC8, symBinAddr: 0x100008DA8, symSize: 0x4C }
  - { offsetInCU: 0x104BA, offset: 0x104BA, size: 0x8, addend: 0x0, symName: __ZNSt3__16vectorIP13FibonacciNodeNS_9allocatorIS2_EEE22__construct_one_at_endB8ue170006IJRKS2_EEEvDpOT_, symObjAddr: 0x4D14, symBinAddr: 0x100008DF4, symSize: 0x90 }
  - { offsetInCU: 0x10508, offset: 0x10508, size: 0x8, addend: 0x0, symName: __ZNSt3__16vectorIP13FibonacciNodeNS_9allocatorIS2_EEE21__push_back_slow_pathIRKS2_EEvOT_, symObjAddr: 0x4DA4, symBinAddr: 0x100008E84, symSize: 0xD8 }
  - { offsetInCU: 0x10564, offset: 0x10564, size: 0x8, addend: 0x0, symName: __ZNKSt3__16vectorIP13FibonacciNodeNS_9allocatorIS2_EEE11__recommendB8ue170006Em, symObjAddr: 0x4E7C, symBinAddr: 0x100008F5C, symSize: 0xB4 }
  - { offsetInCU: 0x105B7, offset: 0x105B7, size: 0x8, addend: 0x0, symName: __ZNSt3__114__split_bufferIP13FibonacciNodeRNS_9allocatorIS2_EEEC1EmmS5_, symObjAddr: 0x4F30, symBinAddr: 0x100009010, symSize: 0x44 }
  - { offsetInCU: 0x1060C, offset: 0x1060C, size: 0x8, addend: 0x0, symName: __ZNSt3__114__split_bufferIP13FibonacciNodeRNS_9allocatorIS2_EEED1Ev, symObjAddr: 0x5084, symBinAddr: 0x100009164, symSize: 0x2C }
  - { offsetInCU: 0x10637, offset: 0x10637, size: 0x8, addend: 0x0, symName: __ZNSt3__114__split_bufferIP13FibonacciNodeRNS_9allocatorIS2_EEEC2EmmS5_, symObjAddr: 0x50B0, symBinAddr: 0x100009190, symSize: 0xD4 }
  - { offsetInCU: 0x106A9, offset: 0x106A9, size: 0x8, addend: 0x0, symName: __ZNSt3__117__compressed_pairIPP13FibonacciNodeRNS_9allocatorIS2_EEEC1B8ue170006IDnS6_EEOT_OT0_, symObjAddr: 0x5184, symBinAddr: 0x100009264, symSize: 0x3C }
  - { offsetInCU: 0x106FF, offset: 0x106FF, size: 0x8, addend: 0x0, symName: __ZNSt3__114__split_bufferIP13FibonacciNodeRNS_9allocatorIS2_EEE7__allocB8ue170006Ev, symObjAddr: 0x51C0, symBinAddr: 0x1000092A0, symSize: 0x28 }
  - { offsetInCU: 0x10723, offset: 0x10723, size: 0x8, addend: 0x0, symName: __ZNSt3__114__split_bufferIP13FibonacciNodeRNS_9allocatorIS2_EEE9__end_capB8ue170006Ev, symObjAddr: 0x51E8, symBinAddr: 0x1000092C8, symSize: 0x28 }
  - { offsetInCU: 0x10748, offset: 0x10748, size: 0x8, addend: 0x0, symName: __ZNSt3__117__compressed_pairIPP13FibonacciNodeRNS_9allocatorIS2_EEEC2B8ue170006IDnS6_EEOT_OT0_, symObjAddr: 0x5210, symBinAddr: 0x1000092F0, symSize: 0x48 }
  - { offsetInCU: 0x1079F, offset: 0x1079F, size: 0x8, addend: 0x0, symName: __ZNSt3__122__compressed_pair_elemIRNS_9allocatorIP13FibonacciNodeEELi1ELb0EEC2B8ue170006IS5_vEEOT_, symObjAddr: 0x5258, symBinAddr: 0x100009338, symSize: 0x20 }
  - { offsetInCU: 0x107DF, offset: 0x107DF, size: 0x8, addend: 0x0, symName: __ZNSt3__117__compressed_pairIPP13FibonacciNodeRNS_9allocatorIS2_EEE6secondB8ue170006Ev, symObjAddr: 0x5278, symBinAddr: 0x100009358, symSize: 0x28 }
  - { offsetInCU: 0x10804, offset: 0x10804, size: 0x8, addend: 0x0, symName: __ZNSt3__122__compressed_pair_elemIRNS_9allocatorIP13FibonacciNodeEELi1ELb0EE5__getB8ue170006Ev, symObjAddr: 0x52A0, symBinAddr: 0x100009380, symSize: 0x18 }
  - { offsetInCU: 0x10828, offset: 0x10828, size: 0x8, addend: 0x0, symName: __ZNSt3__117__compressed_pairIPP13FibonacciNodeRNS_9allocatorIS2_EEE5firstB8ue170006Ev, symObjAddr: 0x52B8, symBinAddr: 0x100009398, symSize: 0x24 }
  - { offsetInCU: 0x1084D, offset: 0x1084D, size: 0x8, addend: 0x0, symName: __ZNSt3__116reverse_iteratorIPP13FibonacciNodeEC1B8ue170006ES3_, symObjAddr: 0x5354, symBinAddr: 0x100009434, symSize: 0x34 }
  - { offsetInCU: 0x10884, offset: 0x10884, size: 0x8, addend: 0x0, symName: __ZNKSt3__116reverse_iteratorIPP13FibonacciNodeE4baseB8ue170006Ev, symObjAddr: 0x5388, symBinAddr: 0x100009468, symSize: 0x18 }
  - { offsetInCU: 0x108C1, offset: 0x108C1, size: 0x8, addend: 0x0, symName: __ZNKSt3__111__move_loopINS_17_ClassicAlgPolicyEEclB8ue170006INS_16reverse_iteratorIPP13FibonacciNodeEES8_S8_EENS_4pairIT_T1_EESA_T0_SB_, symObjAddr: 0x56CC, symBinAddr: 0x1000097AC, symSize: 0xA0 }
  - { offsetInCU: 0x10930, offset: 0x10930, size: 0x8, addend: 0x0, symName: __ZNSt3__18_IterOpsINS_17_ClassicAlgPolicyEE11__iter_moveB8ue170006IRNS_16reverse_iteratorIPP13FibonacciNodeEEEENS_9enable_ifIXsr12is_referenceIDTdeclsr3stdE7declvalIRT_EEEEE5valueEDTclsr3stdE4movedeclsr3stdE7declvalISC_EEEEE4typeEOSB_, symObjAddr: 0x5900, symBinAddr: 0x1000099E0, symSize: 0x28 }
  - { offsetInCU: 0x1095C, offset: 0x1095C, size: 0x8, addend: 0x0, symName: __ZNKSt3__116reverse_iteratorIPP13FibonacciNodeEdeB8ue170006Ev, symObjAddr: 0x5928, symBinAddr: 0x100009A08, symSize: 0x28 }
  - { offsetInCU: 0x1098F, offset: 0x1098F, size: 0x8, addend: 0x0, symName: __ZNSt3__116reverse_iteratorIPP13FibonacciNodeEppB8ue170006Ev, symObjAddr: 0x5950, symBinAddr: 0x100009A30, symSize: 0x20 }
  - { offsetInCU: 0x109B4, offset: 0x109B4, size: 0x8, addend: 0x0, symName: __ZNSt3__18_IterOpsINS_17_ClassicAlgPolicyEE25__validate_iter_referenceB8ue170006IRNS_16reverse_iteratorIPP13FibonacciNodeEEEEvv, symObjAddr: 0x5970, symBinAddr: 0x100009A50, symSize: 0x4 }
  - { offsetInCU: 0x109D2, offset: 0x109D2, size: 0x8, addend: 0x0, symName: __ZNSt3__118__unwrap_iter_implINS_16reverse_iteratorIPP13FibonacciNodeEELb0EE8__unwrapB8ue170006ES5_, symObjAddr: 0x5974, symBinAddr: 0x100009A54, symSize: 0x24 }
  - { offsetInCU: 0x109FA, offset: 0x109FA, size: 0x8, addend: 0x0, symName: __ZNSt3__14pairINS_16reverse_iteratorIPP13FibonacciNodeEES5_EC1B8ue170006IS5_S5_LPv0EEEOT_OT0_, symObjAddr: 0x5998, symBinAddr: 0x100009A78, symSize: 0x3C }
  - { offsetInCU: 0x10A57, offset: 0x10A57, size: 0x8, addend: 0x0, symName: __ZNSt3__14pairINS_16reverse_iteratorIPP13FibonacciNodeEES5_EC2B8ue170006IS5_S5_LPv0EEEOT_OT0_, symObjAddr: 0x59D4, symBinAddr: 0x100009AB4, symSize: 0x34 }
  - { offsetInCU: 0x10AB4, offset: 0x10AB4, size: 0x8, addend: 0x0, symName: __ZNSt3__118__unwrap_iter_implINS_16reverse_iteratorIPP13FibonacciNodeEELb0EE8__rewrapB8ue170006ES5_S5_, symObjAddr: 0x5A08, symBinAddr: 0x100009AE8, symSize: 0x2C }
  - { offsetInCU: 0x10AE2, offset: 0x10AE2, size: 0x8, addend: 0x0, symName: __ZNSt3__116reverse_iteratorIPP13FibonacciNodeEC2B8ue170006ES3_, symObjAddr: 0x5A34, symBinAddr: 0x100009B14, symSize: 0x28 }
  - { offsetInCU: 0x10B19, offset: 0x10B19, size: 0x8, addend: 0x0, symName: __ZNSt3__114__split_bufferIP13FibonacciNodeRNS_9allocatorIS2_EEED2Ev, symObjAddr: 0x5A5C, symBinAddr: 0x100009B3C, symSize: 0x8C }
  - { offsetInCU: 0x10B43, offset: 0x10B43, size: 0x8, addend: 0x0, symName: __ZNSt3__114__split_bufferIP13FibonacciNodeRNS_9allocatorIS2_EEE5clearB8ue170006Ev, symObjAddr: 0x5AE8, symBinAddr: 0x100009BC8, symSize: 0x28 }
  - { offsetInCU: 0x10B67, offset: 0x10B67, size: 0x8, addend: 0x0, symName: __ZNKSt3__114__split_bufferIP13FibonacciNodeRNS_9allocatorIS2_EEE8capacityB8ue170006Ev, symObjAddr: 0x5B10, symBinAddr: 0x100009BF0, symSize: 0x40 }
  - { offsetInCU: 0x10B8B, offset: 0x10B8B, size: 0x8, addend: 0x0, symName: __ZNSt3__114__split_bufferIP13FibonacciNodeRNS_9allocatorIS2_EEE17__destruct_at_endB8ue170006EPS2_, symObjAddr: 0x5B50, symBinAddr: 0x100009C30, symSize: 0x2C }
  - { offsetInCU: 0x10BBE, offset: 0x10BBE, size: 0x8, addend: 0x0, symName: __ZNSt3__114__split_bufferIP13FibonacciNodeRNS_9allocatorIS2_EEE17__destruct_at_endB8ue170006EPS2_NS_17integral_constantIbLb0EEE, symObjAddr: 0x5B7C, symBinAddr: 0x100009C5C, symSize: 0x80 }
  - { offsetInCU: 0x10BFC, offset: 0x10BFC, size: 0x8, addend: 0x0, symName: __ZNKSt3__114__split_bufferIP13FibonacciNodeRNS_9allocatorIS2_EEE9__end_capB8ue170006Ev, symObjAddr: 0x5BFC, symBinAddr: 0x100009CDC, symSize: 0x28 }
  - { offsetInCU: 0x10C20, offset: 0x10C20, size: 0x8, addend: 0x0, symName: __ZNKSt3__117__compressed_pairIPP13FibonacciNodeRNS_9allocatorIS2_EEE5firstB8ue170006Ev, symObjAddr: 0x5C24, symBinAddr: 0x100009D04, symSize: 0x24 }
  - { offsetInCU: 0x10C44, offset: 0x10C44, size: 0x8, addend: 0x0, symName: __ZNSt3__16vectorIP13FibonacciNodeNS_9allocatorIS2_EEE11__make_iterB8ue170006EPS2_, symObjAddr: 0x5C48, symBinAddr: 0x100009D28, symSize: 0x30 }
  - { offsetInCU: 0x10C78, offset: 0x10C78, size: 0x8, addend: 0x0, symName: __ZNSt3__111__wrap_iterIPP13FibonacciNodeEC1B8ue170006ES3_, symObjAddr: 0x5C78, symBinAddr: 0x100009D58, symSize: 0x34 }
  - { offsetInCU: 0x10CAF, offset: 0x10CAF, size: 0x8, addend: 0x0, symName: __ZNSt3__111__wrap_iterIPP13FibonacciNodeEC2B8ue170006ES3_, symObjAddr: 0x5CAC, symBinAddr: 0x100009D8C, symSize: 0x20 }
  - { offsetInCU: 0x10CE6, offset: 0x10CE6, size: 0x8, addend: 0x0, symName: __ZNKSt3__111__wrap_iterIPP13FibonacciNodeE4baseB8ue170006Ev, symObjAddr: 0x5D14, symBinAddr: 0x100009DF4, symSize: 0x18 }
  - { offsetInCU: 0x10D0B, offset: 0x10D0B, size: 0x8, addend: 0x0, symName: __ZNSt3__16vectorIP13FibonacciNodeNS_9allocatorIS2_EEED2B8ue170006Ev, symObjAddr: 0x5D2C, symBinAddr: 0x100009E0C, symSize: 0x40 }
  - { offsetInCU: 0x10D34, offset: 0x10D34, size: 0x8, addend: 0x0, symName: __ZNKSt3__16vectorIiNS_9allocatorIiEEE5emptyB8ue170006Ev, symObjAddr: 0x5D6C, symBinAddr: 0x100009E4C, symSize: 0x28 }
  - { offsetInCU: 0x10D59, offset: 0x10D59, size: 0x8, addend: 0x0, symName: __ZNSt3__16vectorIiNS_9allocatorIiEEE4backB8ue170006Ev, symObjAddr: 0x5D94, symBinAddr: 0x100009E74, symSize: 0x1C }
  - { offsetInCU: 0x10D7E, offset: 0x10D7E, size: 0x8, addend: 0x0, symName: __ZNSt3__16vectorIiNS_9allocatorIiEEE8pop_backEv, symObjAddr: 0x5DB0, symBinAddr: 0x100009E90, symSize: 0x2C }
  - { offsetInCU: 0x10DA3, offset: 0x10DA3, size: 0x8, addend: 0x0, symName: __ZN7MinHeap11heapifyDownEi, symObjAddr: 0x5DDC, symBinAddr: 0x100009EBC, symSize: 0x180 }
  - { offsetInCU: 0x10DFF, offset: 0x10DFF, size: 0x8, addend: 0x0, symName: __ZNSt3__16vectorIiNS_9allocatorIiEEE17__destruct_at_endB8ue170006EPi, symObjAddr: 0x5F5C, symBinAddr: 0x10000A03C, symSize: 0x4C }
  - { offsetInCU: 0x10E41, offset: 0x10E41, size: 0x8, addend: 0x0, symName: __ZNSt3__16vectorIiNS_9allocatorIiEEE22__base_destruct_at_endB8ue170006EPi, symObjAddr: 0x5FA8, symBinAddr: 0x10000A088, symSize: 0x8C }
  - { offsetInCU: 0x10E83, offset: 0x10E83, size: 0x8, addend: 0x0, symName: __ZNKSt3__16vectorIiNS_9allocatorIiEEE17__annotate_shrinkB8ue170006Em, symObjAddr: 0x6034, symBinAddr: 0x10000A114, symSize: 0xB4 }
  - { offsetInCU: 0x10EB7, offset: 0x10EB7, size: 0x8, addend: 0x0, symName: __ZN7MinHeap4leftEi, symObjAddr: 0x60E8, symBinAddr: 0x10000A1C8, symSize: 0x24 }
  - { offsetInCU: 0x10EEA, offset: 0x10EEA, size: 0x8, addend: 0x0, symName: __ZN7MinHeap5rightEi, symObjAddr: 0x610C, symBinAddr: 0x10000A1EC, symSize: 0x24 }
  - { offsetInCU: 0x10F1D, offset: 0x10F1D, size: 0x8, addend: 0x0, symName: __ZN13FibonacciHeapC2Ev, symObjAddr: 0x6130, symBinAddr: 0x10000A210, symSize: 0x1C }
  - { offsetInCU: 0x10F46, offset: 0x10F46, size: 0x8, addend: 0x0, symName: __ZN8SkewHeapC2Ev, symObjAddr: 0x614C, symBinAddr: 0x10000A22C, symSize: 0x18 }
  - { offsetInCU: 0x10F6F, offset: 0x10F6F, size: 0x8, addend: 0x0, symName: __ZN7MinHeapC2Ev, symObjAddr: 0x6164, symBinAddr: 0x10000A244, symSize: 0x2C }
  - { offsetInCU: 0x10F9A, offset: 0x10F9A, size: 0x8, addend: 0x0, symName: __ZNSt3__16vectorIiNS_9allocatorIiEEEC1B8ue170006Ev, symObjAddr: 0x6190, symBinAddr: 0x10000A270, symSize: 0x2C }
  - { offsetInCU: 0x10FC3, offset: 0x10FC3, size: 0x8, addend: 0x0, symName: __ZNSt3__16vectorIiNS_9allocatorIiEEEC2B8ue170006Ev, symObjAddr: 0x61BC, symBinAddr: 0x10000A29C, symSize: 0x4C }
  - { offsetInCU: 0x10FEC, offset: 0x10FEC, size: 0x8, addend: 0x0, symName: __ZNSt3__117__compressed_pairIPiNS_9allocatorIiEEEC1B8ue170006IDnNS_18__default_init_tagEEEOT_OT0_, symObjAddr: 0x6208, symBinAddr: 0x10000A2E8, symSize: 0x3C }
  - { offsetInCU: 0x11043, offset: 0x11043, size: 0x8, addend: 0x0, symName: __ZNSt3__117__compressed_pairIPiNS_9allocatorIiEEEC2B8ue170006IDnNS_18__default_init_tagEEEOT_OT0_, symObjAddr: 0x6244, symBinAddr: 0x10000A324, symSize: 0x40 }
  - { offsetInCU: 0x1109A, offset: 0x1109A, size: 0x8, addend: 0x0, symName: __ZNSt3__122__compressed_pair_elemINS_9allocatorIiEELi1ELb1EEC2B8ue170006ENS_18__default_init_tagE, symObjAddr: 0x6284, symBinAddr: 0x10000A364, symSize: 0x2C }
  - { offsetInCU: 0x110CE, offset: 0x110CE, size: 0x8, addend: 0x0, symName: __ZNSt3__19allocatorIiEC2B8ue170006Ev, symObjAddr: 0x62B0, symBinAddr: 0x10000A390, symSize: 0x2C }
  - { offsetInCU: 0x110F7, offset: 0x110F7, size: 0x8, addend: 0x0, symName: __ZNSt3__116__non_trivial_ifILb1ENS_9allocatorIiEEEC2B8ue170006Ev, symObjAddr: 0x62DC, symBinAddr: 0x10000A3BC, symSize: 0x14 }
  - { offsetInCU: 0x11120, offset: 0x11120, size: 0x8, addend: 0x0, symName: __ZN13FibonacciHeap7isEmptyEv, symObjAddr: 0x62F0, symBinAddr: 0x10000A3D0, symSize: 0x24 }
  - { offsetInCU: 0x11145, offset: 0x11145, size: 0x8, addend: 0x0, symName: __ZNK8SkewHeap7isEmptyEv, symObjAddr: 0x6314, symBinAddr: 0x10000A3F4, symSize: 0x24 }
  - { offsetInCU: 0x1116A, offset: 0x1116A, size: 0x8, addend: 0x0, symName: __ZN7MinHeapD2Ev, symObjAddr: 0x6338, symBinAddr: 0x10000A418, symSize: 0x2C }
  - { offsetInCU: 0x11195, offset: 0x11195, size: 0x8, addend: 0x0, symName: __ZNSt3__111char_traitsIcE6lengthB8ue170006EPKc, symObjAddr: 0x6550, symBinAddr: 0x10000A630, symSize: 0x34 }
  - { offsetInCU: 0x111D6, offset: 0x111D6, size: 0x8, addend: 0x0, symName: __ZNKSt3__113basic_ostreamIcNS_11char_traitsIcEEE6sentrycvbB8ue170006Ev, symObjAddr: 0x6584, symBinAddr: 0x10000A664, symSize: 0x1C }
  - { offsetInCU: 0x111FB, offset: 0x111FB, size: 0x8, addend: 0x0, symName: __ZNSt3__119ostreambuf_iteratorIcNS_11char_traitsIcEEEC1B8ue170006ERNS_13basic_ostreamIcS2_EE, symObjAddr: 0x67E0, symBinAddr: 0x10000A8C0, symSize: 0x34 }
  - { offsetInCU: 0x11232, offset: 0x11232, size: 0x8, addend: 0x0, symName: __ZNKSt3__18ios_base5flagsB8ue170006Ev, symObjAddr: 0x6814, symBinAddr: 0x10000A8F4, symSize: 0x18 }
  - { offsetInCU: 0x11259, offset: 0x11259, size: 0x8, addend: 0x0, symName: __ZNKSt3__19basic_iosIcNS_11char_traitsIcEEE4fillB8ue170006Ev, symObjAddr: 0x682C, symBinAddr: 0x10000A90C, symSize: 0x64 }
  - { offsetInCU: 0x1127F, offset: 0x1127F, size: 0x8, addend: 0x0, symName: __ZNKSt3__119ostreambuf_iteratorIcNS_11char_traitsIcEEE6failedB8ue170006Ev, symObjAddr: 0x6890, symBinAddr: 0x10000A970, symSize: 0x24 }
  - { offsetInCU: 0x112A3, offset: 0x112A3, size: 0x8, addend: 0x0, symName: __ZNSt3__19basic_iosIcNS_11char_traitsIcEEE8setstateB8ue170006Ej, symObjAddr: 0x68B4, symBinAddr: 0x10000A994, symSize: 0x2C }
  - { offsetInCU: 0x112D7, offset: 0x112D7, size: 0x8, addend: 0x0, symName: __ZNKSt3__18ios_base5widthB8ue170006Ev, symObjAddr: 0x68E0, symBinAddr: 0x10000A9C0, symSize: 0x18 }
  - { offsetInCU: 0x112FD, offset: 0x112FD, size: 0x8, addend: 0x0, symName: __ZNSt3__115basic_streambufIcNS_11char_traitsIcEEE5sputnB8ue170006EPKcl, symObjAddr: 0x68F8, symBinAddr: 0x10000A9D8, symSize: 0x3C }
  - { offsetInCU: 0x1133E, offset: 0x1133E, size: 0x8, addend: 0x0, symName: __ZNSt3__112basic_stringIcNS_11char_traitsIcEENS_9allocatorIcEEEC1B8ue170006Emc, symObjAddr: 0x6934, symBinAddr: 0x10000AA14, symSize: 0x3C }
  - { offsetInCU: 0x11384, offset: 0x11384, size: 0x8, addend: 0x0, symName: __ZNSt3__112basic_stringIcNS_11char_traitsIcEENS_9allocatorIcEEE4dataB8ue170006Ev, symObjAddr: 0x6970, symBinAddr: 0x10000AA50, symSize: 0x28 }
  - { offsetInCU: 0x113A9, offset: 0x113A9, size: 0x8, addend: 0x0, symName: __ZNSt3__18ios_base5widthB8ue170006El, symObjAddr: 0x6998, symBinAddr: 0x10000AA78, symSize: 0x2C }
  - { offsetInCU: 0x113EE, offset: 0x113EE, size: 0x8, addend: 0x0, symName: __ZNSt3__112basic_stringIcNS_11char_traitsIcEENS_9allocatorIcEEEC2B8ue170006Emc, symObjAddr: 0x69C4, symBinAddr: 0x10000AAA4, symSize: 0x4C }
  - { offsetInCU: 0x11435, offset: 0x11435, size: 0x8, addend: 0x0, symName: __ZNSt3__117__compressed_pairINS_12basic_stringIcNS_11char_traitsIcEENS_9allocatorIcEEE5__repES5_EC1B8ue170006INS_18__default_init_tagESA_EEOT_OT0_, symObjAddr: 0x6A10, symBinAddr: 0x10000AAF0, symSize: 0x3C }
  - { offsetInCU: 0x1148C, offset: 0x1148C, size: 0x8, addend: 0x0, symName: __ZNSt3__117__compressed_pairINS_12basic_stringIcNS_11char_traitsIcEENS_9allocatorIcEEE5__repES5_EC2B8ue170006INS_18__default_init_tagESA_EEOT_OT0_, symObjAddr: 0x6A4C, symBinAddr: 0x10000AB2C, symSize: 0x3C }
  - { offsetInCU: 0x114E3, offset: 0x114E3, size: 0x8, addend: 0x0, symName: __ZNSt3__122__compressed_pair_elemINS_12basic_stringIcNS_11char_traitsIcEENS_9allocatorIcEEE5__repELi0ELb0EEC2B8ue170006ENS_18__default_init_tagE, symObjAddr: 0x6A88, symBinAddr: 0x10000AB68, symSize: 0x14 }
  - { offsetInCU: 0x11517, offset: 0x11517, size: 0x8, addend: 0x0, symName: __ZNSt3__122__compressed_pair_elemINS_9allocatorIcEELi1ELb1EEC2B8ue170006ENS_18__default_init_tagE, symObjAddr: 0x6A9C, symBinAddr: 0x10000AB7C, symSize: 0x2C }
  - { offsetInCU: 0x1154B, offset: 0x1154B, size: 0x8, addend: 0x0, symName: __ZNSt3__19allocatorIcEC2B8ue170006Ev, symObjAddr: 0x6AC8, symBinAddr: 0x10000ABA8, symSize: 0x2C }
  - { offsetInCU: 0x11574, offset: 0x11574, size: 0x8, addend: 0x0, symName: __ZNSt3__116__non_trivial_ifILb1ENS_9allocatorIcEEEC2B8ue170006Ev, symObjAddr: 0x6AF4, symBinAddr: 0x10000ABD4, symSize: 0x14 }
  - { offsetInCU: 0x1159C, offset: 0x1159C, size: 0x8, addend: 0x0, symName: __ZNSt3__112basic_stringIcNS_11char_traitsIcEENS_9allocatorIcEEE13__get_pointerB8ue170006Ev, symObjAddr: 0x6B1C, symBinAddr: 0x10000ABFC, symSize: 0x54 }
  - { offsetInCU: 0x115C0, offset: 0x115C0, size: 0x8, addend: 0x0, symName: __ZNKSt3__112basic_stringIcNS_11char_traitsIcEENS_9allocatorIcEEE9__is_longB8ue170006Ev, symObjAddr: 0x6B70, symBinAddr: 0x10000AC50, symSize: 0x38 }
  - { offsetInCU: 0x115E4, offset: 0x115E4, size: 0x8, addend: 0x0, symName: __ZNSt3__112basic_stringIcNS_11char_traitsIcEENS_9allocatorIcEEE18__get_long_pointerB8ue170006Ev, symObjAddr: 0x6BA8, symBinAddr: 0x10000AC88, symSize: 0x28 }
  - { offsetInCU: 0x11608, offset: 0x11608, size: 0x8, addend: 0x0, symName: __ZNSt3__112basic_stringIcNS_11char_traitsIcEENS_9allocatorIcEEE19__get_short_pointerB8ue170006Ev, symObjAddr: 0x6BD0, symBinAddr: 0x10000ACB0, symSize: 0x28 }
  - { offsetInCU: 0x1162C, offset: 0x1162C, size: 0x8, addend: 0x0, symName: __ZNKSt3__117__compressed_pairINS_12basic_stringIcNS_11char_traitsIcEENS_9allocatorIcEEE5__repES5_E5firstB8ue170006Ev, symObjAddr: 0x6BF8, symBinAddr: 0x10000ACD8, symSize: 0x24 }
  - { offsetInCU: 0x11651, offset: 0x11651, size: 0x8, addend: 0x0, symName: __ZNKSt3__122__compressed_pair_elemINS_12basic_stringIcNS_11char_traitsIcEENS_9allocatorIcEEE5__repELi0ELb0EE5__getB8ue170006Ev, symObjAddr: 0x6C1C, symBinAddr: 0x10000ACFC, symSize: 0x14 }
  - { offsetInCU: 0x11675, offset: 0x11675, size: 0x8, addend: 0x0, symName: __ZNSt3__117__compressed_pairINS_12basic_stringIcNS_11char_traitsIcEENS_9allocatorIcEEE5__repES5_E5firstB8ue170006Ev, symObjAddr: 0x6C30, symBinAddr: 0x10000AD10, symSize: 0x24 }
  - { offsetInCU: 0x1169A, offset: 0x1169A, size: 0x8, addend: 0x0, symName: __ZNSt3__122__compressed_pair_elemINS_12basic_stringIcNS_11char_traitsIcEENS_9allocatorIcEEE5__repELi0ELb0EE5__getB8ue170006Ev, symObjAddr: 0x6C54, symBinAddr: 0x10000AD34, symSize: 0x14 }
  - { offsetInCU: 0x116BF, offset: 0x116BF, size: 0x8, addend: 0x0, symName: __ZNSt3__114pointer_traitsIPcE10pointer_toB8ue170006ERc, symObjAddr: 0x6C68, symBinAddr: 0x10000AD48, symSize: 0x14 }
  - { offsetInCU: 0x116E2, offset: 0x116E2, size: 0x8, addend: 0x0, symName: __ZNSt3__119ostreambuf_iteratorIcNS_11char_traitsIcEEEC2B8ue170006ERNS_13basic_ostreamIcS2_EE, symObjAddr: 0x6C7C, symBinAddr: 0x10000AD5C, symSize: 0x54 }
  - { offsetInCU: 0x11719, offset: 0x11719, size: 0x8, addend: 0x0, symName: __ZNKSt3__19basic_iosIcNS_11char_traitsIcEEE5rdbufB8ue170006Ev, symObjAddr: 0x6CD0, symBinAddr: 0x10000ADB0, symSize: 0x24 }
  - { offsetInCU: 0x1173F, offset: 0x1173F, size: 0x8, addend: 0x0, symName: __ZNKSt3__18ios_base5rdbufB8ue170006Ev, symObjAddr: 0x6CF4, symBinAddr: 0x10000ADD4, symSize: 0x18 }
  - { offsetInCU: 0x11764, offset: 0x11764, size: 0x8, addend: 0x0, symName: __ZNSt3__111char_traitsIcE11eq_int_typeB8ue170006Eii, symObjAddr: 0x6D0C, symBinAddr: 0x10000ADEC, symSize: 0x28 }
  - { offsetInCU: 0x11797, offset: 0x11797, size: 0x8, addend: 0x0, symName: __ZNSt3__111char_traitsIcE3eofB8ue170006Ev, symObjAddr: 0x6D34, symBinAddr: 0x10000AE14, symSize: 0x8 }
  - { offsetInCU: 0x117AB, offset: 0x117AB, size: 0x8, addend: 0x0, symName: __ZNKSt3__19basic_iosIcNS_11char_traitsIcEEE5widenB8ue170006Ec, symObjAddr: 0x6D3C, symBinAddr: 0x10000AE1C, symSize: 0x84 }
  - { offsetInCU: 0x11816, offset: 0x11816, size: 0x8, addend: 0x0, symName: __ZNKSt3__15ctypeIcE5widenB8ue170006Ec, symObjAddr: 0x6DEC, symBinAddr: 0x10000AECC, symSize: 0x38 }
  - { offsetInCU: 0x1184A, offset: 0x1184A, size: 0x8, addend: 0x0, symName: __ZNSt3__18ios_base8setstateB8ue170006Ej, symObjAddr: 0x6E24, symBinAddr: 0x10000AF04, symSize: 0x34 }
  - { offsetInCU: 0x1187F, offset: 0x1187F, size: 0x8, addend: 0x0, symName: __ZNSt3__16vectorIiNS_9allocatorIiEEEC2Em, symObjAddr: 0x6E7C, symBinAddr: 0x10000AF5C, symSize: 0xD4 }
  - { offsetInCU: 0x118CE, offset: 0x118CE, size: 0x8, addend: 0x0, symName: __ZNSt3__16vectorIiNS_9allocatorIiEEE16__destroy_vectorC1B8ue170006ERS3_, symObjAddr: 0x6F90, symBinAddr: 0x10000B070, symSize: 0x34 }
  - { offsetInCU: 0x11905, offset: 0x11905, size: 0x8, addend: 0x0, symName: __ZNSt3__16vectorIiNS_9allocatorIiEEE11__vallocateB8ue170006Em, symObjAddr: 0x6FC4, symBinAddr: 0x10000B0A4, symSize: 0xAC }
  - { offsetInCU: 0x11948, offset: 0x11948, size: 0x8, addend: 0x0, symName: __ZNSt3__16vectorIiNS_9allocatorIiEEE18__construct_at_endEm, symObjAddr: 0x7070, symBinAddr: 0x10000B150, symSize: 0xC8 }
  - { offsetInCU: 0x119B8, offset: 0x119B8, size: 0x8, addend: 0x0, symName: __ZNSt3__128__exception_guard_exceptionsINS_6vectorIiNS_9allocatorIiEEE16__destroy_vectorEE10__completeB8ue170006Ev, symObjAddr: 0x7138, symBinAddr: 0x10000B218, symSize: 0x1C }
  - { offsetInCU: 0x119DD, offset: 0x119DD, size: 0x8, addend: 0x0, symName: __ZNSt3__128__exception_guard_exceptionsINS_6vectorIiNS_9allocatorIiEEE16__destroy_vectorEED1B8ue170006Ev, symObjAddr: 0x7154, symBinAddr: 0x10000B234, symSize: 0x2C }
  - { offsetInCU: 0x11A06, offset: 0x11A06, size: 0x8, addend: 0x0, symName: __ZNSt3__128__exception_guard_exceptionsINS_6vectorIiNS_9allocatorIiEEE16__destroy_vectorEEC1B8ue170006ES5_, symObjAddr: 0x7180, symBinAddr: 0x10000B260, symSize: 0x34 }
  - { offsetInCU: 0x11A3D, offset: 0x11A3D, size: 0x8, addend: 0x0, symName: __ZNSt3__128__exception_guard_exceptionsINS_6vectorIiNS_9allocatorIiEEE16__destroy_vectorEEC2B8ue170006ES5_, symObjAddr: 0x71B4, symBinAddr: 0x10000B294, symSize: 0x24 }
  - { offsetInCU: 0x11A74, offset: 0x11A74, size: 0x8, addend: 0x0, symName: __ZNSt3__16vectorIiNS_9allocatorIiEEE16__destroy_vectorC2B8ue170006ERS3_, symObjAddr: 0x71D8, symBinAddr: 0x10000B2B8, symSize: 0x20 }
  - { offsetInCU: 0x11AAC, offset: 0x11AAC, size: 0x8, addend: 0x0, symName: __ZNSt3__116allocator_traitsINS_9allocatorIiEEE9constructB8ue170006IiJEvEEvRS2_PT_DpOT0_, symObjAddr: 0x71F8, symBinAddr: 0x10000B2D8, symSize: 0x2C }
  - { offsetInCU: 0x11AEE, offset: 0x11AEE, size: 0x8, addend: 0x0, symName: __ZNSt3__19allocatorIiE9constructB8ue170006IiJEEEvPT_DpOT0_, symObjAddr: 0x7224, symBinAddr: 0x10000B304, symSize: 0x1C }
  - { offsetInCU: 0x11B2F, offset: 0x11B2F, size: 0x8, addend: 0x0, symName: __ZNSt3__128__exception_guard_exceptionsINS_6vectorIiNS_9allocatorIiEEE16__destroy_vectorEED2B8ue170006Ev, symObjAddr: 0x7240, symBinAddr: 0x10000B320, symSize: 0x50 }
  - { offsetInCU: 0x11B57, offset: 0x11B57, size: 0x8, addend: 0x0, symName: __ZNSt3__16vectorIiNS_9allocatorIiEEE16__destroy_vectorclB8ue170006Ev, symObjAddr: 0x7290, symBinAddr: 0x10000B370, symSize: 0x90 }
  - { offsetInCU: 0x11B7B, offset: 0x11B7B, size: 0x8, addend: 0x0, symName: __ZNSt3__16vectorIiNS_9allocatorIiEEE7__clearB8ue170006Ev, symObjAddr: 0x7320, symBinAddr: 0x10000B400, symSize: 0x28 }
  - { offsetInCU: 0x11BA0, offset: 0x11BA0, size: 0x8, addend: 0x0, symName: __ZNSt3__16vectorIiNS_9allocatorIiEEED2B8ue170006Ev, symObjAddr: 0x7348, symBinAddr: 0x10000B428, symSize: 0x40 }
...
